libzeep.so.2 libzeep2 #MINVER#
 _ZGVN5boost4asio6detail10call_stackINS1_15task_io_serviceINS1_13epoll_reactorILb0EEEEEE4top_E@Base 2.0.0
 _ZGVN5boost4asio6detail12service_baseINS0_21stream_socket_serviceINS0_2ip3tcpEEEE2idE@Base 2.0.0
 _ZGVN5boost4asio6detail12service_baseINS0_23socket_acceptor_serviceINS0_2ip3tcpEEEE2idE@Base 2.0.0
 _ZGVN5boost4asio6detail12service_baseINS0_2ip16resolver_serviceINS3_3tcpEEEE2idE@Base 2.0.0
 _ZGVN5boost4asio6detail12service_baseINS1_13epoll_reactorILb0EEEE2idE@Base 2.0.0
 _ZGVN5boost4asio6detail12service_baseINS1_14strand_serviceEE2idE@Base 2.0.0
 _ZGVN5boost4asio6detail12service_baseINS1_15task_io_serviceINS1_13epoll_reactorILb0EEEEEE2idE@Base 2.0.0
 _ZGVN5boost4asio6detail12service_baseINS1_16resolver_serviceINS0_2ip3tcpEEEE2idE@Base 2.0.0
 _ZGVN5boost4asio6detail12service_baseINS1_23reactive_socket_serviceINS0_2ip3tcpENS1_13epoll_reactorILb0EEEEEE2idE@Base 2.0.0
 _ZGVN5boost4asio6detail12service_baseINS1_27reactive_descriptor_serviceINS1_13epoll_reactorILb0EEEEEE2idE@Base 2.0.0
 _ZGVN5boost4asio6detail12service_baseINS1_28reactive_serial_port_serviceINS1_13epoll_reactorILb0EEEEEE2idE@Base 2.0.0
 _ZGVN5boost9date_time10time_facetINS_10posix_time5ptimeEcSt19ostreambuf_iteratorIcSt11char_traitsIcEEE2idE@Base 2.0.0
 _ZGVZN5boost10filesystem12initial_pathINS0_10basic_pathISbIwSt11char_traitsIwESaIwEENS0_12wpath_traitsEEEEERKT_vE9init_path@Base 2.0.0
 _ZGVZN5boost10filesystem12initial_pathINS0_10basic_pathISsNS0_11path_traitsEEEEERKT_vE9init_path@Base 2.0.0
 _ZGVZN5boost10filesystem6detail14remove_all_auxINS0_10basic_pathISbIwSt11char_traitsIwESaIwEENS0_12wpath_traitsEEEEEmRKT_NS0_11file_statusEE7end_itr@Base 2.0.0
 _ZGVZN5boost10filesystem6detail14remove_all_auxINS0_10basic_pathISsNS0_11path_traitsEEEEEmRKT_NS0_11file_statusEE7end_itr@Base 2.0.0
 _ZGVZN5boost4asio5error16get_ssl_categoryEvE8instance@Base 2.0.0
 _ZGVZN5boost4asio5error17get_misc_categoryEvE8instance@Base 2.0.0
 _ZGVZN5boost4asio5error18get_netdb_categoryEvE8instance@Base 2.0.0
 _ZGVZN5boost4asio5error21get_addrinfo_categoryEvE8instance@Base 2.0.0
 _ZN4zeep10dispatcher8dispatchERKSsPNS_3xml7elementE@Base 2.0.0
 _ZN4zeep10dispatcher9make_wsdlERKSs@Base 2.0.0
 _ZN4zeep10dispatcherD2Ev@Base 2.0.0
 _ZN4zeep10make_faultERKSs@Base 2.0.0
 _ZN4zeep10make_faultERKSt9exception@Base 2.0.0
 _ZN4zeep13make_envelopeEPNS_3xml7elementE@Base 2.0.0
 _ZN4zeep26kXML_Parser_Error_MessagesE@Base 2.0.0
 _ZN4zeep3xml10expressionD0Ev@Base 2.0.0
 _ZN4zeep3xml10expressionD1Ev@Base 2.0.0
 _ZN4zeep3xml10kAxisNamesE@Base 2.0.0
 _ZN4zeep3xml10name_spaceD0Ev@Base 2.0.0
 _ZN4zeep3xml10name_spaceD1Ev@Base 2.0.0
 _ZN4zeep3xml10parser_imp11contentspecERNS0_7doctype7elementE@Base 2.0.0
 _ZN4zeep3xml10parser_imp11doctypedeclEv@Base 2.0.0
 _ZN4zeep3xml10parser_imp11entity_declEv@Base 2.0.0
 _ZN4zeep3xml10parser_imp11external_idEv@Base 2.0.0
 _ZN4zeep3xml10parser_imp11markup_declEv@Base 2.0.0
 _ZN4zeep3xml10parser_imp11pereferenceEv@Base 2.0.0
 _ZN4zeep3xml10parser_imp12attlist_declEv@Base 2.0.0
 _ZN4zeep3xml10parser_imp12element_declEv@Base 2.0.0
 _ZN4zeep3xml10parser_imp12parser_stateD1Ev@Base 2.0.0
 _ZN4zeep3xml10parser_imp13get_next_charEv@Base 2.0.0
 _ZN4zeep3xml10parser_imp13notation_declEv@Base 2.0.0
 _ZN4zeep3xml10parser_imp13parse_versionEv@Base 2.0.0
 _ZN4zeep3xml10parser_imp14describe_tokenEi@Base 2.0.0
 _ZN4zeep3xml10parser_imp14get_next_tokenEv@Base 2.0.0
 _ZN4zeep3xml10parser_imp15conditionalsectEv@Base 2.0.0
 _ZN4zeep3xml10parser_imp16get_next_contentEv@Base 2.0.0
 _ZN4zeep3xml10parser_imp16read_external_idEv@Base 2.0.0
 _ZN4zeep3xml10parser_imp18ignoresectcontentsEv@Base 2.0.0
 _ZN4zeep3xml10parser_imp19general_entity_declEv@Base 2.0.0
 _ZN4zeep3xml10parser_imp1sEb@Base 2.0.0
 _ZN4zeep3xml10parser_imp21parameter_entity_declEv@Base 2.0.0
 _ZN4zeep3xml10parser_imp25normalize_attribute_valueEPNS0_11data_sourceE@Base 2.0.0
 _ZN4zeep3xml10parser_imp25normalize_attribute_valueERKSs@Base 2.0.0
 _ZN4zeep3xml10parser_imp2cpEv@Base 2.0.0
 _ZN4zeep3xml10parser_imp2eqEv@Base 2.0.0
 _ZN4zeep3xml10parser_imp2piEv@Base 2.0.0
 _ZN4zeep3xml10parser_imp32parse_general_entity_declarationERSs@Base 2.0.0
 _ZN4zeep3xml10parser_imp34parse_parameter_entity_declarationERSs@Base 2.0.0
 _ZN4zeep3xml10parser_imp4miscEv@Base 2.0.0
 _ZN4zeep3xml10parser_imp5matchEi@Base 2.0.0
 _ZN4zeep3xml10parser_imp5parseEb@Base 2.0.0
 _ZN4zeep3xml10parser_imp6prologEv@Base 2.0.0
 _ZN4zeep3xml10parser_imp7commentEv@Base 2.0.0
 _ZN4zeep3xml10parser_imp7contentERNS0_7doctype9validatorEb@Base 2.0.0
 _ZN4zeep3xml10parser_imp7declsepEv@Base 2.0.0
 _ZN4zeep3xml10parser_imp7elementERNS0_7doctype9validatorE@Base 2.0.0
 _ZN4zeep3xml10parser_imp7retractEv@Base 2.0.0
 _ZN4zeep3xml10parser_imp8ns_state10default_nsEv@Base 2.0.0
 _ZN4zeep3xml10parser_imp8ns_state13ns_for_prefixERKSs@Base 2.0.0
 _ZN4zeep3xml10parser_imp8xml_declEv@Base 2.0.0
 _ZN4zeep3xml10parser_imp9extsubsetEv@Base 2.0.0
 _ZN4zeep3xml10parser_imp9intsubsetEv@Base 2.0.0
 _ZN4zeep3xml10parser_imp9text_declEv@Base 2.0.0
 _ZN4zeep3xml10parser_impC1ERSiRNS0_6parserE@Base 2.0.0
 _ZN4zeep3xml10parser_impC2ERSiRNS0_6parserE@Base 2.0.0
 _ZN4zeep3xml10parser_impD1Ev@Base 2.0.0
 _ZN4zeep3xml10parser_impD2Ev@Base 2.0.0
 _ZN4zeep3xml11context_imp3getERKSs@Base 2.0.0
 _ZN4zeep3xml11context_imp3setERKSsRKNS0_6objectE@Base 2.0.0
 _ZN4zeep3xml11context_impD0Ev@Base 2.0.0
 _ZN4zeep3xml11context_impD1Ev@Base 2.0.0
 _ZN4zeep3xml11data_source18is_entity_on_stackERKSs@Base 2.0.0
 _ZN4zeep3xml11data_sourceD0Ev@Base 2.0.0
 _ZN4zeep3xml11data_sourceD1Ev@Base 2.0.0
 _ZN4zeep3xml12document_imp19external_entity_refERKSsS3_S3_@Base 2.0.0
 _ZN4zeep3xml12document_imp20prefix_for_namespaceERKSs@Base 2.0.0
 _ZN4zeep3xml12document_imp8notationD1Ev@Base 2.0.0
 _ZN4zeep3xml12document_impC1EPNS0_8documentE@Base 2.0.0
 _ZN4zeep3xml12document_impC2EPNS0_8documentE@Base 2.0.0
 _ZN4zeep3xml12document_impD0Ev@Base 2.0.0
 _ZN4zeep3xml12document_impD1Ev@Base 2.0.0
 _ZN4zeep3xml12document_impD2Ev@Base 2.0.0
 _ZN4zeep3xml12is_name_charEm@Base 2.0.0
 _ZN4zeep3xml14k_empty_stringE@Base 2.0.0
 _ZN4zeep3xml15path_expression5printEi@Base 2.0.0
 _ZN4zeep3xml15path_expression8evaluateERNS0_18expression_contextE@Base 2.0.0
 _ZN4zeep3xml15path_expressionD0Ev@Base 2.0.0
 _ZN4zeep3xml15path_expressionD1Ev@Base 2.0.0
 _ZN4zeep3xml15root_expression5printEi@Base 2.0.0
 _ZN4zeep3xml15root_expression8evaluateERNS0_18expression_contextE@Base 2.0.0
 _ZN4zeep3xml15root_expressionD0Ev@Base 2.0.0
 _ZN4zeep3xml15root_expressionD1Ev@Base 2.0.0
 _ZN4zeep3xml15step_expression8evaluateIN5boost8functionIFbPKNS0_4nodeEEEEEENS0_6objectERNS0_18expression_contextET_@Base 2.0.0
 _ZN4zeep3xml15step_expressionD0Ev@Base 2.0.0
 _ZN4zeep3xml15step_expressionD1Ev@Base 2.0.0
 _ZN4zeep3xml16iterate_ancestorIN5boost8functionIFbPKNS0_4nodeEEEEEEvPNS0_9containerERSt4listIPS4_SaISC_EET_@Base 2.0.0
 _ZN4zeep3xml16iterate_childrenIN5boost8functionIFbPKNS0_4nodeEEEEEEvPNS0_9containerERSt4listIPS4_SaISC_EEbT_@Base 2.0.0
 _ZN4zeep3xml16not_wf_exceptionD0Ev@Base 2.0.0
 _ZN4zeep3xml16not_wf_exceptionD1Ev@Base 2.0.0
 _ZN4zeep3xml16source_exceptionC1ERKSs@Base 2.0.0
 _ZN4zeep3xml16source_exceptionD0Ev@Base 2.0.0
 _ZN4zeep3xml16source_exceptionD1Ev@Base 2.0.0
 _ZN4zeep3xml16union_expression5printEi@Base 2.0.0
 _ZN4zeep3xml16union_expression8evaluateERNS0_18expression_contextE@Base 2.0.0
 _ZN4zeep3xml16union_expressionD0Ev@Base 2.0.0
 _ZN4zeep3xml16union_expressionD1Ev@Base 2.0.0
 _ZN4zeep3xml17invalid_exceptionD0Ev@Base 2.0.0
 _ZN4zeep3xml17invalid_exceptionD1Ev@Base 2.0.0
 _ZN4zeep3xml17iterate_followingIN5boost8functionIFbPKNS0_4nodeEEEEEEvPS4_RSt4listIS9_SaIS9_EEbT_@Base 2.0.0
 _ZN4zeep3xml17iterate_precedingIN5boost8functionIFbPKNS0_4nodeEEEEEEvPS4_RSt4listIS9_SaIS9_EEbT_@Base 2.0.0
 _ZN4zeep3xml17negate_expression5printEi@Base 2.0.0
 _ZN4zeep3xml17negate_expression8evaluateERNS0_18expression_contextE@Base 2.0.0
 _ZN4zeep3xml17negate_expressionD0Ev@Base 2.0.0
 _ZN4zeep3xml17negate_expressionD1Ev@Base 2.0.0
 _ZN4zeep3xml17number_expression5printEi@Base 2.0.0
 _ZN4zeep3xml17number_expression8evaluateERNS0_18expression_contextE@Base 2.0.0
 _ZN4zeep3xml17number_expressionD0Ev@Base 2.0.0
 _ZN4zeep3xml17number_expressionD1Ev@Base 2.0.0
 _ZN4zeep3xml17zeep_document_imp14CommentHandlerERKSs@Base 2.0.0
 _ZN4zeep3xml17zeep_document_imp17EndElementHandlerERKSsS3_@Base 2.0.0
 _ZN4zeep3xml17zeep_document_imp19NotationDeclHandlerERKSsS3_S3_@Base 2.0.0
 _ZN4zeep3xml17zeep_document_imp19StartElementHandlerERKSsS3_RKSt4listINS0_6detail4attrESaIS6_EE@Base 2.0.0
 _ZN4zeep3xml17zeep_document_imp20CharacterDataHandlerERKSs@Base 2.0.0
 _ZN4zeep3xml17zeep_document_imp22EndCdataSectionHandlerEv@Base 2.0.0
 _ZN4zeep3xml17zeep_document_imp23EndNamespaceDeclHandlerERKSs@Base 2.0.0
 _ZN4zeep3xml17zeep_document_imp24StartCdataSectionHandlerEv@Base 2.0.0
 _ZN4zeep3xml17zeep_document_imp25StartNamespaceDeclHandlerERKSsS3_@Base 2.0.0
 _ZN4zeep3xml17zeep_document_imp28ProcessingInstructionHandlerERKSsS3_@Base 2.0.0
 _ZN4zeep3xml17zeep_document_imp5parseERSi@Base 2.0.0
 _ZN4zeep3xml17zeep_document_impC1EPNS0_8documentE@Base 2.0.0
 _ZN4zeep3xml17zeep_document_impC2EPNS0_8documentE@Base 2.0.0
 _ZN4zeep3xml17zeep_document_impD0Ev@Base 2.0.0
 _ZN4zeep3xml17zeep_document_impD1Ev@Base 2.0.0
 _ZN4zeep3xml18entity_data_source18is_entity_on_stackERKSs@Base 2.0.0
 _ZN4zeep3xml18entity_data_sourceC1ERKSsS3_S3_PNS0_11data_sourceE@Base 2.0.0
 _ZN4zeep3xml18entity_data_sourceD0Ev@Base 2.0.0
 _ZN4zeep3xml18entity_data_sourceD1Ev@Base 2.0.0
 _ZN4zeep3xml18expression_context3getERKSs@Base 2.0.0
 _ZN4zeep3xml18expression_context3setERKSsRKNS0_6objectE@Base 2.0.0
 _ZN4zeep3xml18expression_context4dumpEv@Base 2.0.0
 _ZN4zeep3xml18expression_contextD0Ev@Base 2.0.0
 _ZN4zeep3xml18expression_contextD1Ev@Base 2.0.0
 _ZN4zeep3xml18is_name_start_charEm@Base 2.0.0
 _ZN4zeep3xml18is_valid_public_idERKSs@Base 2.0.0
 _ZN4zeep3xml18iterate_attributesIN5boost8functionIFbPKNS0_4nodeEEEEEEvPNS0_7elementERSt4listIPS4_SaISC_EET_@Base 2.0.0
 _ZN4zeep3xml18iterate_namespacesIN5boost8functionIFbPKNS0_4nodeEEEEEEvPNS0_7elementERSt4listIPS4_SaISC_EET_@Base 2.0.0
 _ZN4zeep3xml18literal_expression5printEi@Base 2.0.0
 _ZN4zeep3xml18literal_expression8evaluateERNS0_18expression_contextE@Base 2.0.0
 _ZN4zeep3xml18literal_expressionD0Ev@Base 2.0.0
 _ZN4zeep3xml18literal_expressionD1Ev@Base 2.0.0
 _ZN4zeep3xml18string_data_source13get_next_charEv@Base 2.0.0
 _ZN4zeep3xml18string_data_sourceD0Ev@Base 2.0.0
 _ZN4zeep3xml18string_data_sourceD1Ev@Base 2.0.0
 _ZN4zeep3xml18string_data_sourceD2Ev@Base 2.0.0
 _ZN4zeep3xml19istream_data_source13get_next_charEv@Base 2.0.0
 _ZN4zeep3xml19istream_data_source14guess_encodingEv@Base 2.0.0
 _ZN4zeep3xml19istream_data_source14next_utf8_charEv@Base 2.0.0
 _ZN4zeep3xml19istream_data_source17next_utf16be_charEv@Base 2.0.0
 _ZN4zeep3xml19istream_data_source17next_utf16le_charEv@Base 2.0.0
 _ZN4zeep3xml19istream_data_source18next_iso88591_charEv@Base 2.0.0
 _ZN4zeep3xml19istream_data_source9next_byteEv@Base 2.0.0
 _ZN4zeep3xml19istream_data_sourceD0Ev@Base 2.0.0
 _ZN4zeep3xml19istream_data_sourceD1Ev@Base 2.0.0
 _ZN4zeep3xml19operator_expressionILNS0_5TokenE269EE5printEi@Base 2.0.0
 _ZN4zeep3xml19operator_expressionILNS0_5TokenE269EE8evaluateERNS0_18expression_contextE@Base 2.0.0
 _ZN4zeep3xml19operator_expressionILNS0_5TokenE269EED0Ev@Base 2.0.0
 _ZN4zeep3xml19operator_expressionILNS0_5TokenE269EED1Ev@Base 2.0.0
 _ZN4zeep3xml19operator_expressionILNS0_5TokenE270EE5printEi@Base 2.0.0
 _ZN4zeep3xml19operator_expressionILNS0_5TokenE270EE8evaluateERNS0_18expression_contextE@Base 2.0.0
 _ZN4zeep3xml19operator_expressionILNS0_5TokenE270EED0Ev@Base 2.0.0
 _ZN4zeep3xml19operator_expressionILNS0_5TokenE270EED1Ev@Base 2.0.0
 _ZN4zeep3xml19operator_expressionILNS0_5TokenE271EE5printEi@Base 2.0.0
 _ZN4zeep3xml19operator_expressionILNS0_5TokenE271EE8evaluateERNS0_18expression_contextE@Base 2.0.0
 _ZN4zeep3xml19operator_expressionILNS0_5TokenE271EED0Ev@Base 2.0.0
 _ZN4zeep3xml19operator_expressionILNS0_5TokenE271EED1Ev@Base 2.0.0
 _ZN4zeep3xml19operator_expressionILNS0_5TokenE272EE5printEi@Base 2.0.0
 _ZN4zeep3xml19operator_expressionILNS0_5TokenE272EE8evaluateERNS0_18expression_contextE@Base 2.0.0
 _ZN4zeep3xml19operator_expressionILNS0_5TokenE272EED0Ev@Base 2.0.0
 _ZN4zeep3xml19operator_expressionILNS0_5TokenE272EED1Ev@Base 2.0.0
 _ZN4zeep3xml19operator_expressionILNS0_5TokenE273EE5printEi@Base 2.0.0
 _ZN4zeep3xml19operator_expressionILNS0_5TokenE273EE8evaluateERNS0_18expression_contextE@Base 2.0.0
 _ZN4zeep3xml19operator_expressionILNS0_5TokenE273EED0Ev@Base 2.0.0
 _ZN4zeep3xml19operator_expressionILNS0_5TokenE273EED1Ev@Base 2.0.0
 _ZN4zeep3xml19operator_expressionILNS0_5TokenE274EE5printEi@Base 2.0.0
 _ZN4zeep3xml19operator_expressionILNS0_5TokenE274EE8evaluateERNS0_18expression_contextE@Base 2.0.0
 _ZN4zeep3xml19operator_expressionILNS0_5TokenE274EED0Ev@Base 2.0.0
 _ZN4zeep3xml19operator_expressionILNS0_5TokenE274EED1Ev@Base 2.0.0
 _ZN4zeep3xml19operator_expressionILNS0_5TokenE275EE5printEi@Base 2.0.0
 _ZN4zeep3xml19operator_expressionILNS0_5TokenE275EE8evaluateERNS0_18expression_contextE@Base 2.0.0
 _ZN4zeep3xml19operator_expressionILNS0_5TokenE275EED0Ev@Base 2.0.0
 _ZN4zeep3xml19operator_expressionILNS0_5TokenE275EED1Ev@Base 2.0.0
 _ZN4zeep3xml19operator_expressionILNS0_5TokenE276EE5printEi@Base 2.0.0
 _ZN4zeep3xml19operator_expressionILNS0_5TokenE276EE8evaluateERNS0_18expression_contextE@Base 2.0.0
 _ZN4zeep3xml19operator_expressionILNS0_5TokenE276EED0Ev@Base 2.0.0
 _ZN4zeep3xml19operator_expressionILNS0_5TokenE276EED1Ev@Base 2.0.0
 _ZN4zeep3xml19operator_expressionILNS0_5TokenE277EE5printEi@Base 2.0.0
 _ZN4zeep3xml19operator_expressionILNS0_5TokenE277EE8evaluateERNS0_18expression_contextE@Base 2.0.0
 _ZN4zeep3xml19operator_expressionILNS0_5TokenE277EED0Ev@Base 2.0.0
 _ZN4zeep3xml19operator_expressionILNS0_5TokenE277EED1Ev@Base 2.0.0
 _ZN4zeep3xml19operator_expressionILNS0_5TokenE278EE5printEi@Base 2.0.0
 _ZN4zeep3xml19operator_expressionILNS0_5TokenE278EE8evaluateERNS0_18expression_contextE@Base 2.0.0
 _ZN4zeep3xml19operator_expressionILNS0_5TokenE278EED0Ev@Base 2.0.0
 _ZN4zeep3xml19operator_expressionILNS0_5TokenE278EED1Ev@Base 2.0.0
 _ZN4zeep3xml19operator_expressionILNS0_5TokenE279EE5printEi@Base 2.0.0
 _ZN4zeep3xml19operator_expressionILNS0_5TokenE279EE8evaluateERNS0_18expression_contextE@Base 2.0.0
 _ZN4zeep3xml19operator_expressionILNS0_5TokenE279EED0Ev@Base 2.0.0
 _ZN4zeep3xml19operator_expressionILNS0_5TokenE279EED1Ev@Base 2.0.0
 _ZN4zeep3xml19operator_expressionILNS0_5TokenE280EE5printEi@Base 2.0.0
 _ZN4zeep3xml19operator_expressionILNS0_5TokenE280EE8evaluateERNS0_18expression_contextE@Base 2.0.0
 _ZN4zeep3xml19operator_expressionILNS0_5TokenE280EED0Ev@Base 2.0.0
 _ZN4zeep3xml19operator_expressionILNS0_5TokenE280EED1Ev@Base 2.0.0
 _ZN4zeep3xml19variable_expression5printEi@Base 2.0.0
 _ZN4zeep3xml19variable_expression8evaluateERNS0_18expression_contextE@Base 2.0.0
 _ZN4zeep3xml19variable_expressionD0Ev@Base 2.0.0
 _ZN4zeep3xml19variable_expressionD1Ev@Base 2.0.0
 _ZN4zeep3xml20node_type_expressionINS0_22processing_instructionEE4testEPKNS0_4nodeE@Base 2.0.0
 _ZN4zeep3xml20node_type_expressionINS0_22processing_instructionEE5printEi@Base 2.0.0
 _ZN4zeep3xml20node_type_expressionINS0_22processing_instructionEE8evaluateERNS0_18expression_contextE@Base 2.0.0
 _ZN4zeep3xml20node_type_expressionINS0_22processing_instructionEED0Ev@Base 2.0.0
 _ZN4zeep3xml20node_type_expressionINS0_22processing_instructionEED1Ev@Base 2.0.0
 _ZN4zeep3xml20node_type_expressionINS0_4nodeEE4testEPKS2_@Base 2.0.0
 _ZN4zeep3xml20node_type_expressionINS0_4nodeEE5printEi@Base 2.0.0
 _ZN4zeep3xml20node_type_expressionINS0_4nodeEE8evaluateERNS0_18expression_contextE@Base 2.0.0
 _ZN4zeep3xml20node_type_expressionINS0_4nodeEED0Ev@Base 2.0.0
 _ZN4zeep3xml20node_type_expressionINS0_4nodeEED1Ev@Base 2.0.0
 _ZN4zeep3xml20node_type_expressionINS0_4textEE4testEPKNS0_4nodeE@Base 2.0.0
 _ZN4zeep3xml20node_type_expressionINS0_4textEE5printEi@Base 2.0.0
 _ZN4zeep3xml20node_type_expressionINS0_4textEE8evaluateERNS0_18expression_contextE@Base 2.0.0
 _ZN4zeep3xml20node_type_expressionINS0_4textEED0Ev@Base 2.0.0
 _ZN4zeep3xml20node_type_expressionINS0_4textEED1Ev@Base 2.0.0
 _ZN4zeep3xml20node_type_expressionINS0_7commentEE4testEPKNS0_4nodeE@Base 2.0.0
 _ZN4zeep3xml20node_type_expressionINS0_7commentEE5printEi@Base 2.0.0
 _ZN4zeep3xml20node_type_expressionINS0_7commentEE8evaluateERNS0_18expression_contextE@Base 2.0.0
 _ZN4zeep3xml20node_type_expressionINS0_7commentEED0Ev@Base 2.0.0
 _ZN4zeep3xml20node_type_expressionINS0_7commentEED1Ev@Base 2.0.0
 _ZN4zeep3xml20predicate_expression5printEi@Base 2.0.0
 _ZN4zeep3xml20predicate_expression8evaluateERNS0_18expression_contextE@Base 2.0.0
 _ZN4zeep3xml20predicate_expressionD0Ev@Base 2.0.0
 _ZN4zeep3xml20predicate_expressionD1Ev@Base 2.0.0
 _ZN4zeep3xml22processing_instructionC1ERKSsS3_@Base 2.0.0
 _ZN4zeep3xml22processing_instructionD0Ev@Base 2.0.0
 _ZN4zeep3xml22processing_instructionD1Ev@Base 2.0.0
 _ZN4zeep3xml23is_valid_public_id_charEm@Base 2.0.0
 _ZN4zeep3xml23is_valid_system_literalERKSs@Base 2.0.0
 _ZN4zeep3xml23valid_nesting_validator5checkEPNS0_11data_sourceE@Base 2.0.0
 _ZN4zeep3xml24core_function_expressionILNS0_12CoreFunctionE0EE5printEi@Base 2.0.0
 _ZN4zeep3xml24core_function_expressionILNS0_12CoreFunctionE0EE8evaluateERNS0_18expression_contextE@Base 2.0.0
 _ZN4zeep3xml24core_function_expressionILNS0_12CoreFunctionE0EED0Ev@Base 2.0.0
 _ZN4zeep3xml24core_function_expressionILNS0_12CoreFunctionE0EED1Ev@Base 2.0.0
 _ZN4zeep3xml24core_function_expressionILNS0_12CoreFunctionE10EE5printEi@Base 2.0.0
 _ZN4zeep3xml24core_function_expressionILNS0_12CoreFunctionE10EE8evaluateERNS0_18expression_contextE@Base 2.0.0
 _ZN4zeep3xml24core_function_expressionILNS0_12CoreFunctionE10EED0Ev@Base 2.0.0
 _ZN4zeep3xml24core_function_expressionILNS0_12CoreFunctionE10EED1Ev@Base 2.0.0
 _ZN4zeep3xml24core_function_expressionILNS0_12CoreFunctionE11EE5printEi@Base 2.0.0
 _ZN4zeep3xml24core_function_expressionILNS0_12CoreFunctionE11EE8evaluateERNS0_18expression_contextE@Base 2.0.0
 _ZN4zeep3xml24core_function_expressionILNS0_12CoreFunctionE11EED0Ev@Base 2.0.0
 _ZN4zeep3xml24core_function_expressionILNS0_12CoreFunctionE11EED1Ev@Base 2.0.0
 _ZN4zeep3xml24core_function_expressionILNS0_12CoreFunctionE12EE5printEi@Base 2.0.0
 _ZN4zeep3xml24core_function_expressionILNS0_12CoreFunctionE12EE8evaluateERNS0_18expression_contextE@Base 2.0.0
 _ZN4zeep3xml24core_function_expressionILNS0_12CoreFunctionE12EED0Ev@Base 2.0.0
 _ZN4zeep3xml24core_function_expressionILNS0_12CoreFunctionE12EED1Ev@Base 2.0.0
 _ZN4zeep3xml24core_function_expressionILNS0_12CoreFunctionE13EE8evaluateERNS0_18expression_contextE@Base 2.0.0
 _ZN4zeep3xml24core_function_expressionILNS0_12CoreFunctionE14EE5printEi@Base 2.0.0
 _ZN4zeep3xml24core_function_expressionILNS0_12CoreFunctionE14EE8evaluateERNS0_18expression_contextE@Base 2.0.0
 _ZN4zeep3xml24core_function_expressionILNS0_12CoreFunctionE14EED0Ev@Base 2.0.0
 _ZN4zeep3xml24core_function_expressionILNS0_12CoreFunctionE14EED1Ev@Base 2.0.0
 _ZN4zeep3xml24core_function_expressionILNS0_12CoreFunctionE15EE5printEi@Base 2.0.0
 _ZN4zeep3xml24core_function_expressionILNS0_12CoreFunctionE15EE8evaluateERNS0_18expression_contextE@Base 2.0.0
 _ZN4zeep3xml24core_function_expressionILNS0_12CoreFunctionE15EED0Ev@Base 2.0.0
 _ZN4zeep3xml24core_function_expressionILNS0_12CoreFunctionE15EED1Ev@Base 2.0.0
 _ZN4zeep3xml24core_function_expressionILNS0_12CoreFunctionE16EE5printEi@Base 2.0.0
 _ZN4zeep3xml24core_function_expressionILNS0_12CoreFunctionE16EE8evaluateERNS0_18expression_contextE@Base 2.0.0
 _ZN4zeep3xml24core_function_expressionILNS0_12CoreFunctionE16EED0Ev@Base 2.0.0
 _ZN4zeep3xml24core_function_expressionILNS0_12CoreFunctionE16EED1Ev@Base 2.0.0
 _ZN4zeep3xml24core_function_expressionILNS0_12CoreFunctionE17EE5printEi@Base 2.0.0
 _ZN4zeep3xml24core_function_expressionILNS0_12CoreFunctionE17EE8evaluateERNS0_18expression_contextE@Base 2.0.0
 _ZN4zeep3xml24core_function_expressionILNS0_12CoreFunctionE17EED0Ev@Base 2.0.0
 _ZN4zeep3xml24core_function_expressionILNS0_12CoreFunctionE17EED1Ev@Base 2.0.0
 _ZN4zeep3xml24core_function_expressionILNS0_12CoreFunctionE18EE5printEi@Base 2.0.0
 _ZN4zeep3xml24core_function_expressionILNS0_12CoreFunctionE18EE8evaluateERNS0_18expression_contextE@Base 2.0.0
 _ZN4zeep3xml24core_function_expressionILNS0_12CoreFunctionE18EED0Ev@Base 2.0.0
 _ZN4zeep3xml24core_function_expressionILNS0_12CoreFunctionE18EED1Ev@Base 2.0.0
 _ZN4zeep3xml24core_function_expressionILNS0_12CoreFunctionE19EE5printEi@Base 2.0.0
 _ZN4zeep3xml24core_function_expressionILNS0_12CoreFunctionE19EE8evaluateERNS0_18expression_contextE@Base 2.0.0
 _ZN4zeep3xml24core_function_expressionILNS0_12CoreFunctionE19EED0Ev@Base 2.0.0
 _ZN4zeep3xml24core_function_expressionILNS0_12CoreFunctionE19EED1Ev@Base 2.0.0
 _ZN4zeep3xml24core_function_expressionILNS0_12CoreFunctionE1EE5printEi@Base 2.0.0
 _ZN4zeep3xml24core_function_expressionILNS0_12CoreFunctionE1EE8evaluateERNS0_18expression_contextE@Base 2.0.0
 _ZN4zeep3xml24core_function_expressionILNS0_12CoreFunctionE1EED0Ev@Base 2.0.0
 _ZN4zeep3xml24core_function_expressionILNS0_12CoreFunctionE1EED1Ev@Base 2.0.0
 _ZN4zeep3xml24core_function_expressionILNS0_12CoreFunctionE20EE5printEi@Base 2.0.0
 _ZN4zeep3xml24core_function_expressionILNS0_12CoreFunctionE20EE8evaluateERNS0_18expression_contextE@Base 2.0.0
 _ZN4zeep3xml24core_function_expressionILNS0_12CoreFunctionE20EED0Ev@Base 2.0.0
 _ZN4zeep3xml24core_function_expressionILNS0_12CoreFunctionE20EED1Ev@Base 2.0.0
 _ZN4zeep3xml24core_function_expressionILNS0_12CoreFunctionE21EE5printEi@Base 2.0.0
 _ZN4zeep3xml24core_function_expressionILNS0_12CoreFunctionE21EE8evaluateERNS0_18expression_contextE@Base 2.0.0
 _ZN4zeep3xml24core_function_expressionILNS0_12CoreFunctionE21EED0Ev@Base 2.0.0
 _ZN4zeep3xml24core_function_expressionILNS0_12CoreFunctionE21EED1Ev@Base 2.0.0
 _ZN4zeep3xml24core_function_expressionILNS0_12CoreFunctionE22EE5printEi@Base 2.0.0
 _ZN4zeep3xml24core_function_expressionILNS0_12CoreFunctionE22EE8evaluateERNS0_18expression_contextE@Base 2.0.0
 _ZN4zeep3xml24core_function_expressionILNS0_12CoreFunctionE22EED0Ev@Base 2.0.0
 _ZN4zeep3xml24core_function_expressionILNS0_12CoreFunctionE22EED1Ev@Base 2.0.0
 _ZN4zeep3xml24core_function_expressionILNS0_12CoreFunctionE23EE5printEi@Base 2.0.0
 _ZN4zeep3xml24core_function_expressionILNS0_12CoreFunctionE23EE8evaluateERNS0_18expression_contextE@Base 2.0.0
 _ZN4zeep3xml24core_function_expressionILNS0_12CoreFunctionE23EED0Ev@Base 2.0.0
 _ZN4zeep3xml24core_function_expressionILNS0_12CoreFunctionE23EED1Ev@Base 2.0.0
 _ZN4zeep3xml24core_function_expressionILNS0_12CoreFunctionE24EE5printEi@Base 2.0.0
 _ZN4zeep3xml24core_function_expressionILNS0_12CoreFunctionE24EE8evaluateERNS0_18expression_contextE@Base 2.0.0
 _ZN4zeep3xml24core_function_expressionILNS0_12CoreFunctionE24EED0Ev@Base 2.0.0
 _ZN4zeep3xml24core_function_expressionILNS0_12CoreFunctionE24EED1Ev@Base 2.0.0
 _ZN4zeep3xml24core_function_expressionILNS0_12CoreFunctionE25EE5printEi@Base 2.0.0
 _ZN4zeep3xml24core_function_expressionILNS0_12CoreFunctionE25EE8evaluateERNS0_18expression_contextE@Base 2.0.0
 _ZN4zeep3xml24core_function_expressionILNS0_12CoreFunctionE25EED0Ev@Base 2.0.0
 _ZN4zeep3xml24core_function_expressionILNS0_12CoreFunctionE25EED1Ev@Base 2.0.0
 _ZN4zeep3xml24core_function_expressionILNS0_12CoreFunctionE26EE5printEi@Base 2.0.0
 _ZN4zeep3xml24core_function_expressionILNS0_12CoreFunctionE26EE8evaluateERNS0_18expression_contextE@Base 2.0.0
 _ZN4zeep3xml24core_function_expressionILNS0_12CoreFunctionE26EED0Ev@Base 2.0.0
 _ZN4zeep3xml24core_function_expressionILNS0_12CoreFunctionE26EED1Ev@Base 2.0.0
 _ZN4zeep3xml24core_function_expressionILNS0_12CoreFunctionE27EE5printEi@Base 2.0.0
 _ZN4zeep3xml24core_function_expressionILNS0_12CoreFunctionE27EE8evaluateERNS0_18expression_contextE@Base 2.0.0
 _ZN4zeep3xml24core_function_expressionILNS0_12CoreFunctionE27EED0Ev@Base 2.0.0
 _ZN4zeep3xml24core_function_expressionILNS0_12CoreFunctionE27EED1Ev@Base 2.0.0
 _ZN4zeep3xml24core_function_expressionILNS0_12CoreFunctionE2EE5printEi@Base 2.0.0
 _ZN4zeep3xml24core_function_expressionILNS0_12CoreFunctionE2EE8evaluateERNS0_18expression_contextE@Base 2.0.0
 _ZN4zeep3xml24core_function_expressionILNS0_12CoreFunctionE2EED0Ev@Base 2.0.0
 _ZN4zeep3xml24core_function_expressionILNS0_12CoreFunctionE2EED1Ev@Base 2.0.0
 _ZN4zeep3xml24core_function_expressionILNS0_12CoreFunctionE3EE5printEi@Base 2.0.0
 _ZN4zeep3xml24core_function_expressionILNS0_12CoreFunctionE3EE8evaluateERNS0_18expression_contextE@Base 2.0.0
 _ZN4zeep3xml24core_function_expressionILNS0_12CoreFunctionE3EED0Ev@Base 2.0.0
 _ZN4zeep3xml24core_function_expressionILNS0_12CoreFunctionE3EED1Ev@Base 2.0.0
 _ZN4zeep3xml24core_function_expressionILNS0_12CoreFunctionE4EE5printEi@Base 2.0.0
 _ZN4zeep3xml24core_function_expressionILNS0_12CoreFunctionE4EE8evaluateERNS0_18expression_contextE@Base 2.0.0
 _ZN4zeep3xml24core_function_expressionILNS0_12CoreFunctionE4EED0Ev@Base 2.0.0
 _ZN4zeep3xml24core_function_expressionILNS0_12CoreFunctionE4EED1Ev@Base 2.0.0
 _ZN4zeep3xml24core_function_expressionILNS0_12CoreFunctionE5EE5printEi@Base 2.0.0
 _ZN4zeep3xml24core_function_expressionILNS0_12CoreFunctionE5EE8evaluateERNS0_18expression_contextE@Base 2.0.0
 _ZN4zeep3xml24core_function_expressionILNS0_12CoreFunctionE5EED0Ev@Base 2.0.0
 _ZN4zeep3xml24core_function_expressionILNS0_12CoreFunctionE5EED1Ev@Base 2.0.0
 _ZN4zeep3xml24core_function_expressionILNS0_12CoreFunctionE6EE5printEi@Base 2.0.0
 _ZN4zeep3xml24core_function_expressionILNS0_12CoreFunctionE6EE8evaluateERNS0_18expression_contextE@Base 2.0.0
 _ZN4zeep3xml24core_function_expressionILNS0_12CoreFunctionE6EED0Ev@Base 2.0.0
 _ZN4zeep3xml24core_function_expressionILNS0_12CoreFunctionE6EED1Ev@Base 2.0.0
 _ZN4zeep3xml24core_function_expressionILNS0_12CoreFunctionE7EE5printEi@Base 2.0.0
 _ZN4zeep3xml24core_function_expressionILNS0_12CoreFunctionE7EE8evaluateERNS0_18expression_contextE@Base 2.0.0
 _ZN4zeep3xml24core_function_expressionILNS0_12CoreFunctionE7EED0Ev@Base 2.0.0
 _ZN4zeep3xml24core_function_expressionILNS0_12CoreFunctionE7EED1Ev@Base 2.0.0
 _ZN4zeep3xml24core_function_expressionILNS0_12CoreFunctionE8EE5printEi@Base 2.0.0
 _ZN4zeep3xml24core_function_expressionILNS0_12CoreFunctionE8EE8evaluateERNS0_18expression_contextE@Base 2.0.0
 _ZN4zeep3xml24core_function_expressionILNS0_12CoreFunctionE8EED0Ev@Base 2.0.0
 _ZN4zeep3xml24core_function_expressionILNS0_12CoreFunctionE8EED1Ev@Base 2.0.0
 _ZN4zeep3xml24core_function_expressionILNS0_12CoreFunctionE9EE5printEi@Base 2.0.0
 _ZN4zeep3xml24core_function_expressionILNS0_12CoreFunctionE9EE8evaluateERNS0_18expression_contextE@Base 2.0.0
 _ZN4zeep3xml24core_function_expressionILNS0_12CoreFunctionE9EED0Ev@Base 2.0.0
 _ZN4zeep3xml24core_function_expressionILNS0_12CoreFunctionE9EED1Ev@Base 2.0.0
 _ZN4zeep3xml25name_test_step_expression12name_matchesEPKNS0_4nodeE@Base 2.0.0
 _ZN4zeep3xml25name_test_step_expression5printEi@Base 2.0.0
 _ZN4zeep3xml25name_test_step_expression8evaluateERNS0_18expression_contextE@Base 2.0.0
 _ZN4zeep3xml25name_test_step_expressionC1ENS0_8AxisTypeERKSs@Base 2.0.0
 _ZN4zeep3xml25name_test_step_expressionD0Ev@Base 2.0.0
 _ZN4zeep3xml25name_test_step_expressionD1Ev@Base 2.0.0
 _ZN4zeep3xml28is_valid_system_literal_charEm@Base 2.0.0
 _ZN4zeep3xml28parameter_entity_data_sourceC1ERKSsS3_PNS0_11data_sourceE@Base 2.0.0
 _ZN4zeep3xml28parameter_entity_data_sourceD0Ev@Base 2.0.0
 _ZN4zeep3xml28parameter_entity_data_sourceD1Ev@Base 2.0.0
 _ZN4zeep3xml4node14append_siblingEPS1_@Base 2.0.0
 _ZN4zeep3xml4node14remove_siblingEPS1_@Base 2.0.0
 _ZN4zeep3xml4node4rootEv@Base 2.0.0
 _ZN4zeep3xml4node6parentEPS1_@Base 2.0.0
 _ZN4zeep3xml4nodeC1Ev@Base 2.0.0
 _ZN4zeep3xml4nodeC2Ev@Base 2.0.0
 _ZN4zeep3xml4nodeD0Ev@Base 2.0.0
 _ZN4zeep3xml4nodeD1Ev@Base 2.0.0
 _ZN4zeep3xml4nodeD2Ev@Base 2.0.0
 _ZN4zeep3xml4textD0Ev@Base 2.0.0
 _ZN4zeep3xml4textD1Ev@Base 2.0.0
 _ZN4zeep3xml5xpathC1ERKSs@Base 2.0.0
 _ZN4zeep3xml5xpathC2ERKSs@Base 2.0.0
 _ZN4zeep3xml5xpathD0Ev@Base 2.0.0
 _ZN4zeep3xml5xpathD1Ev@Base 2.0.0
 _ZN4zeep3xml5xpathD2Ev@Base 2.0.0
 _ZN4zeep3xml6appendERSsm@Base 2.0.0
 _ZN4zeep3xml6indentEi@Base 2.0.0
 _ZN4zeep3xml6objectC1ERKS1_@Base 2.0.0
 _ZN4zeep3xml6objectC1ERKSs@Base 2.0.0
 _ZN4zeep3xml6objectC1ESt4listIPNS0_4nodeESaIS4_EE@Base 2.0.0
 _ZN4zeep3xml6objectC1Eb@Base 2.0.0
 _ZN4zeep3xml6objectC1Ed@Base 2.0.0
 _ZN4zeep3xml6objectC1Ev@Base 2.0.0
 _ZN4zeep3xml6objectC2ERKS1_@Base 2.0.0
 _ZN4zeep3xml6objectC2ERKSs@Base 2.0.0
 _ZN4zeep3xml6objectC2ESt4listIPNS0_4nodeESaIS4_EE@Base 2.0.0
 _ZN4zeep3xml6objectC2Eb@Base 2.0.0
 _ZN4zeep3xml6objectC2Ed@Base 2.0.0
 _ZN4zeep3xml6objectC2Ev@Base 2.0.0
 _ZN4zeep3xml6objectD1Ev@Base 2.0.0
 _ZN4zeep3xml6objectaSERKS1_@Base 2.0.0
 _ZN4zeep3xml6objecteqES1_@Base 2.0.0
 _ZN4zeep3xml6objectltES1_@Base 2.0.0
 _ZN4zeep3xml6parser11end_elementERKSsS3_@Base 2.0.0
 _ZN4zeep3xml6parser13notation_declERKSsS3_S3_@Base 2.0.0
 _ZN4zeep3xml6parser13start_elementERKSsS3_RKSt4listINS0_6detail4attrESaIS6_EE@Base 2.0.0
 _ZN4zeep3xml6parser14character_dataERKSs@Base 2.0.0
 _ZN4zeep3xml6parser17end_cdata_sectionEv@Base 2.0.0
 _ZN4zeep3xml6parser18end_namespace_declERKSs@Base 2.0.0
 _ZN4zeep3xml6parser19external_entity_refERKSsS3_S3_@Base 2.0.0
 _ZN4zeep3xml6parser19report_invalidationERKSs@Base 2.0.0
 _ZN4zeep3xml6parser19start_cdata_sectionEv@Base 2.0.0
 _ZN4zeep3xml6parser20start_namespace_declERKSsS3_@Base 2.0.0
 _ZN4zeep3xml6parser22processing_instructionERKSsS3_@Base 2.0.0
 _ZN4zeep3xml6parser5parseEb@Base 2.0.0
 _ZN4zeep3xml6parser7commentERKSs@Base 2.0.0
 _ZN4zeep3xml6parserC1ERKSs@Base 2.0.0
 _ZN4zeep3xml6parserC1ERSi@Base 2.0.0
 _ZN4zeep3xml6parserC2ERKSs@Base 2.0.0
 _ZN4zeep3xml6parserC2ERSi@Base 2.0.0
 _ZN4zeep3xml6parserD0Ev@Base 2.0.0
 _ZN4zeep3xml6parserD1Ev@Base 2.0.0
 _ZN4zeep3xml6parserD2Ev@Base 2.0.0
 _ZN4zeep3xml6writer11end_doctypeEv@Base 2.0.0
 _ZN4zeep3xml6writer11end_elementEv@Base 2.0.0
 _ZN4zeep3xml6writer13empty_doctypeERKSsS3_@Base 2.0.0
 _ZN4zeep3xml6writer13start_doctypeERKSsS3_@Base 2.0.0
 _ZN4zeep3xml6writer13start_elementERKSs@Base 2.0.0
 _ZN4zeep3xml6writer22processing_instructionERKSsS3_@Base 2.0.0
 _ZN4zeep3xml6writer7commentERKSs@Base 2.0.0
 _ZN4zeep3xml6writer7contentERKSs@Base 2.0.0
 _ZN4zeep3xml6writer8notationERKSsS3_S3_@Base 2.0.0
 _ZN4zeep3xml6writer8xml_declEb@Base 2.0.0
 _ZN4zeep3xml6writer9attributeERKSsS3_@Base 2.0.0
 _ZN4zeep3xml6writerC1ERSo@Base 2.0.0
 _ZN4zeep3xml6writerC2ERSo@Base 2.0.0
 _ZN4zeep3xml6writerD0Ev@Base 2.0.0
 _ZN4zeep3xml6writerD1Ev@Base 2.0.0
 _ZN4zeep3xml6writerD2Ev@Base 2.0.0
 _ZN4zeep3xml7commentC1ERKSs@Base 2.0.0
 _ZN4zeep3xml7commentD0Ev@Base 2.0.0
 _ZN4zeep3xml7commentD1Ev@Base 2.0.0
 _ZN4zeep3xml7context3getISsEET_RKSs@Base 2.0.0
 _ZN4zeep3xml7context3getIdEET_RKSs@Base 2.0.0
 _ZN4zeep3xml7context3setISsEEvRKSsRKT_@Base 2.0.0
 _ZN4zeep3xml7context3setIdEEvRKSsRKT_@Base 2.0.0
 _ZN4zeep3xml7contextC1Ev@Base 2.0.0
 _ZN4zeep3xml7contextC2Ev@Base 2.0.0
 _ZN4zeep3xml7contextD0Ev@Base 2.0.0
 _ZN4zeep3xml7contextD1Ev@Base 2.0.0
 _ZN4zeep3xml7contextD2Ev@Base 2.0.0
 _ZN4zeep3xml7doctype10state_base11allow_emptyEv@Base 2.0.0
 _ZN4zeep3xml7doctype10state_base15allow_char_dataEv@Base 2.0.0
 _ZN4zeep3xml7doctype10state_base5resetEv@Base 2.0.0
 _ZN4zeep3xml7doctype10state_baseD0Ev@Base 2.0.0
 _ZN4zeep3xml7doctype10state_baseD1Ev@Base 2.0.0
 _ZN4zeep3xml7doctype10state_baseD2Ev@Base 2.0.0
 _ZN4zeep3xml7doctype11allowed_any5printERSo@Base 2.0.0
 _ZN4zeep3xml7doctype11allowed_anyD0Ev@Base 2.0.0
 _ZN4zeep3xml7doctype11allowed_anyD1Ev@Base 2.0.0
 _ZN4zeep3xml7doctype11allowed_seq3addEPNS1_12allowed_baseE@Base 2.0.0
 _ZN4zeep3xml7doctype11allowed_seq5printERSo@Base 2.0.0
 _ZN4zeep3xml7doctype11allowed_seqC1EPNS1_12allowed_baseE@Base 2.0.0
 _ZN4zeep3xml7doctype11allowed_seqD0Ev@Base 2.0.0
 _ZN4zeep3xml7doctype11allowed_seqD1Ev@Base 2.0.0
 _ZN4zeep3xml7doctype11allowed_seqD2Ev@Base 2.0.0
 _ZN4zeep3xml7doctype11state_empty11allow_emptyEv@Base 2.0.0
 _ZN4zeep3xml7doctype11state_empty5allowERKSs@Base 2.0.0
 _ZN4zeep3xml7doctype11state_emptyD0Ev@Base 2.0.0
 _ZN4zeep3xml7doctype11state_emptyD1Ev@Base 2.0.0
 _ZN4zeep3xml7doctype12allowed_baseD0Ev@Base 2.0.0
 _ZN4zeep3xml7doctype12allowed_baseD1Ev@Base 2.0.0
 _ZN4zeep3xml7doctype12state_choice11allow_emptyEv@Base 2.0.0
 _ZN4zeep3xml7doctype12state_choice15allow_char_dataEv@Base 2.0.0
 _ZN4zeep3xml7doctype12state_choice5allowERKSs@Base 2.0.0
 _ZN4zeep3xml7doctype12state_choice5resetEv@Base 2.0.0
 _ZN4zeep3xml7doctype12state_choiceD0Ev@Base 2.0.0
 _ZN4zeep3xml7doctype12state_choiceD1Ev@Base 2.0.0
 _ZN4zeep3xml7doctype13allowed_empty5printERSo@Base 2.0.0
 _ZN4zeep3xml7doctype13allowed_emptyD0Ev@Base 2.0.0
 _ZN4zeep3xml7doctype13allowed_emptyD1Ev@Base 2.0.0
 _ZN4zeep3xml7doctype13state_element5allowERKSs@Base 2.0.0
 _ZN4zeep3xml7doctype13state_element5resetEv@Base 2.0.0
 _ZN4zeep3xml7doctype13state_elementD0Ev@Base 2.0.0
 _ZN4zeep3xml7doctype13state_elementD1Ev@Base 2.0.0
 _ZN4zeep3xml7doctype14allowed_choice3addEPNS1_12allowed_baseE@Base 2.0.0
 _ZN4zeep3xml7doctype14allowed_choice5printERSo@Base 2.0.0
 _ZN4zeep3xml7doctype14allowed_choiceD0Ev@Base 2.0.0
 _ZN4zeep3xml7doctype14allowed_choiceD1Ev@Base 2.0.0
 _ZN4zeep3xml7doctype14allowed_choiceD2Ev@Base 2.0.0
 _ZN4zeep3xml7doctype14general_entityC1ERKSsS4_bb@Base 2.0.0
 _ZN4zeep3xml7doctype14state_repeated15allow_char_dataEv@Base 2.0.0
 _ZN4zeep3xml7doctype14state_repeated5resetEv@Base 2.0.0
 _ZN4zeep3xml7doctype14state_repeatedD0Ev@Base 2.0.0
 _ZN4zeep3xml7doctype14state_repeatedD1Ev@Base 2.0.0
 _ZN4zeep3xml7doctype15allowed_element5printERSo@Base 2.0.0
 _ZN4zeep3xml7doctype15allowed_elementD0Ev@Base 2.0.0
 _ZN4zeep3xml7doctype15allowed_elementD1Ev@Base 2.0.0
 _ZN4zeep3xml7doctype16allowed_repeated5printERSo@Base 2.0.0
 _ZN4zeep3xml7doctype16allowed_repeatedC1EPNS1_12allowed_baseEc@Base 2.0.0
 _ZN4zeep3xml7doctype16allowed_repeatedD0Ev@Base 2.0.0
 _ZN4zeep3xml7doctype16allowed_repeatedD1Ev@Base 2.0.0
 _ZN4zeep3xml7doctype16allowed_repeatedD2Ev@Base 2.0.0
 _ZN4zeep3xml7doctype18state_repeated_any11allow_emptyEv@Base 2.0.0
 _ZN4zeep3xml7doctype18state_repeated_any5allowERKSs@Base 2.0.0
 _ZN4zeep3xml7doctype18state_repeated_anyD0Ev@Base 2.0.0
 _ZN4zeep3xml7doctype18state_repeated_anyD1Ev@Base 2.0.0
 _ZN4zeep3xml7doctype27state_repeated_zero_or_once11allow_emptyEv@Base 2.0.0
 _ZN4zeep3xml7doctype27state_repeated_zero_or_once5allowERKSs@Base 2.0.0
 _ZN4zeep3xml7doctype27state_repeated_zero_or_onceD0Ev@Base 2.0.0
 _ZN4zeep3xml7doctype27state_repeated_zero_or_onceD1Ev@Base 2.0.0
 _ZN4zeep3xml7doctype28state_repeated_at_least_once11allow_emptyEv@Base 2.0.0
 _ZN4zeep3xml7doctype28state_repeated_at_least_once5allowERKSs@Base 2.0.0
 _ZN4zeep3xml7doctype28state_repeated_at_least_onceD0Ev@Base 2.0.0
 _ZN4zeep3xml7doctype28state_repeated_at_least_onceD1Ev@Base 2.0.0
 _ZN4zeep3xml7doctype7element11set_allowedEPNS1_12allowed_baseE@Base 2.0.0
 _ZN4zeep3xml7doctype7element13add_attributeESt8auto_ptrINS1_9attributeEE@Base 2.0.0
 _ZN4zeep3xml7doctype7elementD1Ev@Base 2.0.0
 _ZN4zeep3xml7doctype7elementD2Ev@Base 2.0.0
 _ZN4zeep3xml7doctype9attributeC1ERKSsNS1_13AttributeTypeERKSt6vectorISsSaISsEE@Base 2.0.0
 _ZN4zeep3xml7doctype9attributeD1Ev@Base 2.0.0
 _ZN4zeep3xml7doctype9state_any11allow_emptyEv@Base 2.0.0
 _ZN4zeep3xml7doctype9state_any15allow_char_dataEv@Base 2.0.0
 _ZN4zeep3xml7doctype9state_any5allowERKSs@Base 2.0.0
 _ZN4zeep3xml7doctype9state_anyD0Ev@Base 2.0.0
 _ZN4zeep3xml7doctype9state_anyD1Ev@Base 2.0.0
 _ZN4zeep3xml7doctype9state_seq11allow_emptyEv@Base 2.0.0
 _ZN4zeep3xml7doctype9state_seq15allow_char_dataEv@Base 2.0.0
 _ZN4zeep3xml7doctype9state_seq5allowERKSs@Base 2.0.0
 _ZN4zeep3xml7doctype9state_seq5resetEv@Base 2.0.0
 _ZN4zeep3xml7doctype9state_seqD0Ev@Base 2.0.0
 _ZN4zeep3xml7doctype9state_seqD1Ev@Base 2.0.0
 _ZN4zeep3xml7doctype9validator15allow_char_dataEv@Base 2.0.0
 _ZN4zeep3xml7doctype9validator4doneEv@Base 2.0.0
 _ZN4zeep3xml7doctype9validator5allowERKSs@Base 2.0.0
 _ZN4zeep3xml7doctype9validator5resetEv@Base 2.0.0
 _ZN4zeep3xml7doctype9validator9s_next_nrE@Base 2.0.0
 _ZN4zeep3xml7doctype9validatorC1EPNS1_12allowed_baseE@Base 2.0.0
 _ZN4zeep3xml7doctype9validatorC1ERKS2_@Base 2.0.0
 _ZN4zeep3xml7doctype9validatorC1Ev@Base 2.0.0
 _ZN4zeep3xml7doctype9validatorC2EPNS1_12allowed_baseE@Base 2.0.0
 _ZN4zeep3xml7doctype9validatorC2ERKS2_@Base 2.0.0
 _ZN4zeep3xml7doctype9validatorC2Ev@Base 2.0.0
 _ZN4zeep3xml7doctype9validatorD1Ev@Base 2.0.0
 _ZN4zeep3xml7doctype9validatorD2Ev@Base 2.0.0
 _ZN4zeep3xml7doctype9validatoraSERKS2_@Base 2.0.0
 _ZN4zeep3xml7doctypelsERSoRNS1_9validatorE@Base 2.0.0
 _ZN4zeep3xml7element13set_attributeERKSsS3_b@Base 2.0.0
 _ZN4zeep3xml7element14set_name_spaceERKSsS3_@Base 2.0.0
 _ZN4zeep3xml7element16remove_attributeERKSs@Base 2.0.0
 _ZN4zeep3xml7element7contentERKSs@Base 2.0.0
 _ZN4zeep3xml7element8add_textERKSs@Base 2.0.0
 _ZN4zeep3xml7elementC1ERKSs@Base 2.0.0
 _ZN4zeep3xml7elementC2ERKSs@Base 2.0.0
 _ZN4zeep3xml7elementD0Ev@Base 2.0.0
 _ZN4zeep3xml7elementD1Ev@Base 2.0.0
 _ZN4zeep3xml7elementD2Ev@Base 2.0.0
 _ZN4zeep3xml8document10create_impEPS1_@Base 2.0.0
 _ZN4zeep3xml8document10find_firstERKSs@Base 2.0.0
 _ZN4zeep3xml8document10no_commentEb@Base 2.0.0
 _ZN4zeep3xml8document13s_parser_typeE@Base 2.0.0
 _ZN4zeep3xml8document14set_validatingEb@Base 2.0.0
 _ZN4zeep3xml8document15set_parser_typeENS0_11parser_typeE@Base 2.0.0
 _ZN4zeep3xml8document4findERKSs@Base 2.0.0
 _ZN4zeep3xml8document4readERKSs@Base 2.0.0
 _ZN4zeep3xml8document4readERSi@Base 2.0.0
 _ZN4zeep3xml8document4readERSiRKN5boost10filesystem10basic_pathISsNS4_11path_traitsEEE@Base 2.0.0
 _ZN4zeep3xml8document4trimEb@Base 2.0.0
 _ZN4zeep3xml8document4wrapEb@Base 2.0.0
 _ZN4zeep3xml8document5childEPNS0_7elementE@Base 2.0.0
 _ZN4zeep3xml8document6indentEi@Base 2.0.0
 _ZN4zeep3xml8document8base_dirERKN5boost10filesystem10basic_pathISsNS3_11path_traitsEEE@Base 2.0.0
 _ZN4zeep3xml8document8encodingENS0_13encoding_typeE@Base 2.0.0
 _ZN4zeep3xml8documentC1EPNS0_12document_impE@Base 2.0.0
 _ZN4zeep3xml8documentC1ERKSs@Base 2.0.0
 _ZN4zeep3xml8documentC1ERSi@Base 2.0.0
 _ZN4zeep3xml8documentC1Ev@Base 2.0.0
 _ZN4zeep3xml8documentC2EPNS0_12document_impE@Base 2.0.0
 _ZN4zeep3xml8documentC2ERKSs@Base 2.0.0
 _ZN4zeep3xml8documentC2ERSi@Base 2.0.0
 _ZN4zeep3xml8documentC2Ev@Base 2.0.0
 _ZN4zeep3xml8documentD0Ev@Base 2.0.0
 _ZN4zeep3xml8documentD1Ev@Base 2.0.0
 _ZN4zeep3xml8documentD2Ev@Base 2.0.0
 _ZN4zeep3xml9attributeD0Ev@Base 2.0.0
 _ZN4zeep3xml9attributeD1Ev@Base 2.0.0
 _ZN4zeep3xml9container6appendEPNS0_4nodeE@Base 2.0.0
 _ZN4zeep3xml9container6removeEPNS0_4nodeE@Base 2.0.0
 _ZN4zeep3xml9containerC1Ev@Base 2.0.0
 _ZN4zeep3xml9containerC2Ev@Base 2.0.0
 _ZN4zeep3xml9containerD0Ev@Base 2.0.0
 _ZN4zeep3xml9containerD1Ev@Base 2.0.0
 _ZN4zeep3xml9containerD2Ev@Base 2.0.0
 _ZN4zeep3xml9root_node13child_elementEPNS0_7elementE@Base 2.0.0
 _ZN4zeep3xml9root_node4rootEv@Base 2.0.0
 _ZN4zeep3xml9root_node6appendEPNS0_4nodeE@Base 2.0.0
 _ZN4zeep3xml9root_nodeC1Ev@Base 2.0.0
 _ZN4zeep3xml9root_nodeC2Ev@Base 2.0.0
 _ZN4zeep3xml9root_nodeD0Ev@Base 2.0.0
 _ZN4zeep3xml9root_nodeD1Ev@Base 2.0.0
 _ZN4zeep3xml9root_nodeD2Ev@Base 2.0.0
 _ZN4zeep3xml9xpath_imp10preprocessERKSs@Base 2.0.0
 _ZN4zeep3xml9xpath_imp10unary_exprEv@Base 2.0.0
 _ZN4zeep3xml9xpath_imp10union_exprEv@Base 2.0.0
 _ZN4zeep3xml9xpath_imp11filter_exprEv@Base 2.0.0
 _ZN4zeep3xml9xpath_imp12primary_exprEv@Base 2.0.0
 _ZN4zeep3xml9xpath_imp13additive_exprEv@Base 2.0.0
 _ZN4zeep3xml9xpath_imp13equality_exprEv@Base 2.0.0
 _ZN4zeep3xml9xpath_imp13function_callEv@Base 2.0.0
 _ZN4zeep3xml9xpath_imp13get_next_charEv@Base 2.0.0
 _ZN4zeep3xml9xpath_imp13location_pathEv@Base 2.0.0
 _ZN4zeep3xml9xpath_imp14describe_tokenENS0_5TokenE@Base 2.0.0
 _ZN4zeep3xml9xpath_imp14get_next_tokenEv@Base 2.0.0
 _ZN4zeep3xml9xpath_imp15relational_exprEv@Base 2.0.0
 _ZN4zeep3xml9xpath_imp19multiplicative_exprEv@Base 2.0.0
 _ZN4zeep3xml9xpath_imp22relative_location_pathEv@Base 2.0.0
 _ZN4zeep3xml9xpath_imp4exprEv@Base 2.0.0
 _ZN4zeep3xml9xpath_imp4stepEv@Base 2.0.0
 _ZN4zeep3xml9xpath_imp5matchENS0_5TokenE@Base 2.0.0
 _ZN4zeep3xml9xpath_imp5parseERKSs@Base 2.0.0
 _ZN4zeep3xml9xpath_imp7retractEv@Base 2.0.0
 _ZN4zeep3xml9xpath_imp8and_exprEv@Base 2.0.0
 _ZN4zeep3xml9xpath_imp8evaluateERNS0_4nodeERNS0_11context_impE@Base 2.0.0
 _ZN4zeep3xml9xpath_imp9next_byteEv@Base 2.0.0
 _ZN4zeep3xml9xpath_imp9node_testENS0_8AxisTypeE@Base 2.0.0
 _ZN4zeep3xml9xpath_imp9path_exprEv@Base 2.0.0
 _ZN4zeep3xml9xpath_impC1Ev@Base 2.0.0
 _ZN4zeep3xml9xpath_impC2Ev@Base 2.0.0
 _ZN4zeep3xml9xpath_impD1Ev@Base 2.0.0
 _ZN4zeep3xml9xpath_impD2Ev@Base 2.0.0
 _ZN4zeep3xmllsERSoPKNS0_4nodeE@Base 2.0.0
 _ZN4zeep3xmllsERSoRKNS0_4nodeE@Base 2.0.0
 _ZN4zeep3xmllsERSoRKNS0_8documentE@Base 2.0.0
 _ZN4zeep3xmllsERSoRNS0_18expression_contextE@Base 2.0.0
 _ZN4zeep3xmllsERSoRNS0_6objectE@Base 2.0.0
 _ZN4zeep3xmlrsERSiRNS0_8documentE@Base 2.0.0
 _ZN4zeep4http10connection11handle_readERKN5boost6system10error_codeEm@Base 2.0.0
 _ZN4zeep4http10connection12handle_writeERKN5boost6system10error_codeE@Base 2.0.0
 _ZN4zeep4http10connection5startEv@Base 2.0.0
 _ZN4zeep4http10connectionC1ERN5boost4asio10io_serviceERNS0_15request_handlerE@Base 2.0.0
 _ZN4zeep4http10connectionC2ERN5boost4asio10io_serviceERNS0_15request_handlerE@Base 2.0.0
 _ZN4zeep4http14request_parser11parse_chunkERNS0_7requestEc@Base 2.0.0
 _ZN4zeep4http14request_parser12parse_headerERNS0_7requestEc@Base 2.0.0
 _ZN4zeep4http14request_parser13parse_contentERNS0_7requestEc@Base 2.0.0
 _ZN4zeep4http14request_parser16parse_empty_lineERNS0_7requestEc@Base 2.0.0
 _ZN4zeep4http14request_parser18parse_initial_lineERNS0_7requestEc@Base 2.0.0
 _ZN4zeep4http14request_parser5parseERNS0_7requestEPKcj@Base 2.0.0
 _ZN4zeep4http14request_parser5resetEv@Base 2.0.0
 _ZN4zeep4http14request_parserC1Ev@Base 2.0.0
 _ZN4zeep4http14request_parserC2Ev@Base 2.0.0
 _ZN4zeep4http21preforked_server_base13handle_acceptERKN5boost6system10error_codeE@Base 2.0.0
 _ZN4zeep4http21preforked_server_base15start_listeningEv@Base 2.0.0
 _ZN4zeep4http21preforked_server_base22write_socket_to_workerEiRN5boost4asio19basic_stream_socketINS3_2ip3tcpENS3_21stream_socket_serviceIS6_EEEE@Base 2.0.0
 _ZN4zeep4http21preforked_server_base23read_socket_from_parentEiRN5boost4asio19basic_stream_socketINS3_2ip3tcpENS3_21stream_socket_serviceIS6_EEEE@Base 2.0.0
 _ZN4zeep4http21preforked_server_base3runEv@Base 2.0.0
 _ZN4zeep4http21preforked_server_base4stopEv@Base 2.0.0
 _ZN4zeep4http21preforked_server_baseC1ERKSssiPNS1_23server_constructor_baseE@Base 2.0.0
 _ZN4zeep4http21preforked_server_baseC2ERKSssiPNS1_23server_constructor_baseE@Base 2.0.0
 _ZN4zeep4http21preforked_server_baseD0Ev@Base 2.0.0
 _ZN4zeep4http21preforked_server_baseD1Ev@Base 2.0.0
 _ZN4zeep4http21preforked_server_baseD2Ev@Base 2.0.0
 _ZN4zeep4http5reply10to_buffersEv@Base 2.0.0
 _ZN4zeep4http5reply11get_as_textEv@Base 2.0.0
 _ZN4zeep4http5reply11set_contentEPNS_3xml7elementE@Base 2.0.0
 _ZN4zeep4http5reply11set_contentERKSsS3_@Base 2.0.0
 _ZN4zeep4http5reply11stock_replyENS0_11status_typeE@Base 2.0.0
 _ZN4zeep4http5replyD1Ev@Base 2.0.0
 _ZN4zeep4http5replyaSERKS1_@Base 2.0.0
 _ZN4zeep4http6detail10s_log_lockE@Base 2.0.0
 _ZN4zeep4http6detail11is_tspecialEi@Base 2.0.0
 _ZN4zeep4http6detail14kStatusStringsE@Base 2.0.0
 _ZN4zeep4http6detail15get_status_textENS0_11status_typeE@Base 2.0.0
 _ZN4zeep4http6detail5s_logE@Base 2.0.0
 _ZN4zeep4http6headerD1Ev@Base 2.0.0
 _ZN4zeep4http6server13handle_acceptERKN5boost6system10error_codeE@Base 2.0.0
 _ZN4zeep4http6server14handle_requestERKNS0_7requestERNS0_5replyE@Base 2.0.0
 _ZN4zeep4http6server14handle_requestERN5boost4asio19basic_stream_socketINS3_2ip3tcpENS3_21stream_socket_serviceIS6_EEEERKNS0_7requestERNS0_5replyE@Base 2.0.0
 _ZN4zeep4http6server3logEv@Base 2.0.0
 _ZN4zeep4http6server3runEv@Base 2.0.0
 _ZN4zeep4http6server4stopEv@Base 2.0.0
 _ZN4zeep4http6serverC1ERKSssi@Base 2.0.0
 _ZN4zeep4http6serverC2ERKSssi@Base 2.0.0
 _ZN4zeep4http6serverD0Ev@Base 2.0.0
 _ZN4zeep4http6serverD1Ev@Base 2.0.0
 _ZN4zeep4http6serverD2Ev@Base 2.0.0
 _ZN4zeep4http7requestD1Ev@Base 2.0.0
 _ZN4zeep6detail6decodeERKSs@Base 2.0.0
 _ZN4zeep6server14handle_requestERKNS_4http7requestERNS1_5replyE@Base 2.0.0
 _ZN4zeep6serverC1ERKSsS2_S2_si@Base 2.0.0
 _ZN4zeep6serverC2ERKSsS2_S2_si@Base 2.0.0
 _ZN4zeep6serverD0Ev@Base 2.0.0
 _ZN4zeep6serverD1Ev@Base 2.0.0
 _ZN4zeep8envelopeC1ERNS_3xml8documentE@Base 2.0.0
 _ZN4zeep8envelopeC1Ev@Base 2.0.0
 _ZN4zeep8envelopeC2ERNS_3xml8documentE@Base 2.0.0
 _ZN4zeep8envelopeC2Ev@Base 2.0.0
 _ZN4zeep9exceptionC1EPKcz@Base 2.0.0
 _ZN4zeep9exceptionC2EPKcz@Base 2.0.0
 _ZN4zeep9exceptionD0Ev@Base 2.0.0
 _ZN4zeep9exceptionD1Ev@Base 2.0.0
 _ZN4zeep9exceptionD2Ev@Base 2.0.0
 _ZN5boost10filesystem10basic_pathISsNS0_11path_traitsEEdVEPKc@Base 2.0.0
 _ZN5boost10filesystem14basic_ifstreamIcSt11char_traitsIcEED0Ev@Base 2.0.0
 _ZN5boost10filesystem14basic_ifstreamIcSt11char_traitsIcEED1Ev@Base 2.0.0
 _ZN5boost10filesystem22basic_filesystem_errorINS0_10basic_pathISsNS0_11path_traitsEEEEC1ERKSsRKS4_NS_6system10error_codeE@Base 2.0.0
 _ZN5boost10filesystem22basic_filesystem_errorINS0_10basic_pathISsNS0_11path_traitsEEEED0Ev@Base 2.0.0
 _ZN5boost10filesystem22basic_filesystem_errorINS0_10basic_pathISsNS0_11path_traitsEEEED1Ev@Base 2.0.0
 _ZN5boost10filesystem22basic_filesystem_errorINS0_10basic_pathISsNS0_11path_traitsEEEED2Ev@Base 2.0.0
 _ZN5boost10filesystem6detail15iterator_helperINS0_10basic_pathISsNS0_11path_traitsEEEE12do_incrementERNS5_8iteratorE@Base 2.0.0
 _ZN5boost10filesystem6existsINS0_10basic_pathISsNS0_11path_traitsEEEEENS_9enable_ifINS0_13is_basic_pathIT_EEbE4typeERKS7_@Base 2.0.0
 _ZN5boost10filesystemdvISsNS0_11path_traitsEEENS0_10basic_pathIT_T0_EERKS6_S8_@Base 2.0.0
 _ZN5boost10lock_errorD0Ev@Base 2.0.0
 _ZN5boost10lock_errorD1Ev@Base 2.0.0
 _ZN5boost10lock_guardINS_12shared_mutexEED1Ev@Base 2.0.0
 _ZN5boost10ptr_vectorIN4zeep3xml7doctype6entityENS_20heap_clone_allocatorESaIPvEED1Ev@Base 2.0.0
 _ZN5boost10ptr_vectorIN4zeep3xml7doctype7elementENS_20heap_clone_allocatorESaIPvEED1Ev@Base 2.0.0
 _ZN5boost10ptr_vectorIN4zeep3xml7doctype9attributeENS_20heap_clone_allocatorESaIPvEED1Ev@Base 2.0.0
 _ZN5boost10scoped_ptrINS_4asio10io_service4workEED1Ev@Base 2.0.0
 _ZN5boost10scoped_ptrINS_4asio10io_serviceEED1Ev@Base 2.0.0
 _ZN5boost10scoped_ptrINS_4asio6detail12posix_threadEED1Ev@Base 2.0.0
 _ZN5boost10shared_ptrIN4zeep3xml10expressionEE5resetINS2_15path_expressionEEEvPT_@Base 2.0.0
 _ZN5boost10shared_ptrIN4zeep3xml10expressionEE5resetINS2_24core_function_expressionILNS2_12CoreFunctionE0EEEEEvPT_@Base 2.0.0
 _ZN5boost10shared_ptrIN4zeep3xml10expressionEE5resetINS2_24core_function_expressionILNS2_12CoreFunctionE10EEEEEvPT_@Base 2.0.0
 _ZN5boost10shared_ptrIN4zeep3xml10expressionEE5resetINS2_24core_function_expressionILNS2_12CoreFunctionE11EEEEEvPT_@Base 2.0.0
 _ZN5boost10shared_ptrIN4zeep3xml10expressionEE5resetINS2_24core_function_expressionILNS2_12CoreFunctionE12EEEEEvPT_@Base 2.0.0
 _ZN5boost10shared_ptrIN4zeep3xml10expressionEE5resetINS2_24core_function_expressionILNS2_12CoreFunctionE14EEEEEvPT_@Base 2.0.0
 _ZN5boost10shared_ptrIN4zeep3xml10expressionEE5resetINS2_24core_function_expressionILNS2_12CoreFunctionE15EEEEEvPT_@Base 2.0.0
 _ZN5boost10shared_ptrIN4zeep3xml10expressionEE5resetINS2_24core_function_expressionILNS2_12CoreFunctionE1EEEEEvPT_@Base 2.0.0
 _ZN5boost10shared_ptrIN4zeep3xml10expressionEE5resetINS2_24core_function_expressionILNS2_12CoreFunctionE2EEEEEvPT_@Base 2.0.0
 _ZN5boost10shared_ptrIN4zeep3xml10expressionEE5resetINS2_24core_function_expressionILNS2_12CoreFunctionE3EEEEEvPT_@Base 2.0.0
 _ZN5boost10shared_ptrIN4zeep3xml10expressionEE5resetINS2_24core_function_expressionILNS2_12CoreFunctionE4EEEEEvPT_@Base 2.0.0
 _ZN5boost10shared_ptrIN4zeep3xml10expressionEE5resetINS2_24core_function_expressionILNS2_12CoreFunctionE5EEEEEvPT_@Base 2.0.0
 _ZN5boost10shared_ptrIN4zeep3xml10expressionEE5resetINS2_24core_function_expressionILNS2_12CoreFunctionE6EEEEEvPT_@Base 2.0.0
 _ZN5boost10shared_ptrIN4zeep3xml10expressionEE5resetINS2_24core_function_expressionILNS2_12CoreFunctionE7EEEEEvPT_@Base 2.0.0
 _ZN5boost10shared_ptrIN4zeep3xml10expressionEE5resetINS2_24core_function_expressionILNS2_12CoreFunctionE8EEEEEvPT_@Base 2.0.0
 _ZN5boost10shared_ptrIN4zeep3xml10expressionEE5resetINS2_24core_function_expressionILNS2_12CoreFunctionE9EEEEEvPT_@Base 2.0.0
 _ZN5boost10shared_ptrIN4zeep4http10connectionEE5resetIS3_EEvPT_@Base 2.0.0
 _ZN5boost10shared_ptrIN4zeep4http10connectionEED1Ev@Base 2.0.0
 _ZN5boost11bad_pointerD0Ev@Base 2.0.0
 _ZN5boost11bad_pointerD1Ev@Base 2.0.0
 _ZN5boost11shared_lockINS_12shared_mutexEED1Ev@Base 2.0.0
 _ZN5boost11unique_lockINS_5mutexEED1Ev@Base 2.0.0
 _ZN5boost12bad_weak_ptrD0Ev@Base 2.0.0
 _ZN5boost12bad_weak_ptrD1Ev@Base 2.0.0
 _ZN5boost12basic_formatIcSt11char_traitsIcESaIcEE18make_or_reuse_dataEm@Base 2.0.0
 _ZN5boost12basic_formatIcSt11char_traitsIcESaIcEE5clearEv@Base 2.0.0
 _ZN5boost12basic_formatIcSt11char_traitsIcESaIcEE5parseERKSs@Base 2.0.0
 _ZN5boost12basic_formatIcSt11char_traitsIcESaIcEEC1EPKc@Base 2.0.0
 _ZN5boost12basic_formatIcSt11char_traitsIcESaIcEED1Ev@Base 2.0.0
 _ZN5boost12basic_formatIcSt11char_traitsIcESaIcEErmISsEERS4_RKT_@Base 2.0.0
 _ZN5boost12basic_formatIcSt11char_traitsIcESaIcEErmISsEERS4_RT_@Base 2.0.0
 _ZN5boost12basic_formatIcSt11char_traitsIcESaIcEErmIiEERS4_RKT_@Base 2.0.0
 _ZN5boost12shared_mutexD1Ev@Base 2.0.0
 _ZN5boost12thread_groupC1Ev@Base 2.0.0
 _ZN5boost12thread_groupD1Ev@Base 2.0.0
 _ZN5boost14checked_deleteIN4zeep4http10connectionEEEvPT_@Base 2.0.0
 _ZN5boost14checked_deleteINS_10filesystem22basic_filesystem_errorINS1_10basic_pathISsNS1_11path_traitsEEEE5m_impEEEvPT_@Base 2.0.0
 _ZN5boost14checked_deleteINS_4asio21basic_socket_acceptorINS1_2ip3tcpENS1_23socket_acceptor_serviceIS4_EEEEEEvPT_@Base 2.0.0
 _ZN5boost14checked_deleteISt6vectorINS_4asio2ip20basic_resolver_entryINS3_3tcpEEESaIS6_EEEEvPT_@Base 2.0.0
 _ZN5boost15throw_exceptionINS_16bad_lexical_castEEEvRKT_@Base 2.0.0
 _ZN5boost15throw_exceptionINS_17bad_function_callEEEvRKT_@Base 2.0.0
 _ZN5boost15throw_exceptionINS_2io13too_many_argsEEEvRKT_@Base 2.0.0
 _ZN5boost15throw_exceptionINS_2io17bad_format_stringEEEvRKT_@Base 2.0.0
 _ZN5boost15throw_exceptionINS_6system12system_errorEEEvRKT_@Base 2.0.0
 _ZN5boost15throw_exceptionINS_9gregorian16bad_day_of_monthEEEvRKT_@Base 2.0.0
 _ZN5boost15throw_exceptionISt12out_of_rangeEEvRKT_@Base 2.0.0
 _ZN5boost16bad_lexical_castD0Ev@Base 2.0.0
 _ZN5boost16bad_lexical_castD1Ev@Base 2.0.0
 _ZN5boost16exception_detail10clone_baseD0Ev@Base 2.0.0
 _ZN5boost16exception_detail10clone_baseD1Ev@Base 2.0.0
 _ZN5boost16exception_detail10clone_implINS0_19error_info_injectorINS_10filesystem22basic_filesystem_errorINS3_10basic_pathISsNS3_11path_traitsEEEEEEEED0Ev@Base 2.0.0
 _ZN5boost16exception_detail10clone_implINS0_19error_info_injectorINS_10filesystem22basic_filesystem_errorINS3_10basic_pathISsNS3_11path_traitsEEEEEEEED1Ev@Base 2.0.0
 _ZN5boost16exception_detail10clone_implINS0_19error_info_injectorINS_12bad_weak_ptrEEEED0Ev@Base 2.0.0
 _ZN5boost16exception_detail10clone_implINS0_19error_info_injectorINS_12bad_weak_ptrEEEED1Ev@Base 2.0.0
 _ZN5boost16exception_detail10clone_implINS0_19error_info_injectorINS_16bad_lexical_castEEEED0Ev@Base 2.0.0
 _ZN5boost16exception_detail10clone_implINS0_19error_info_injectorINS_16bad_lexical_castEEEED1Ev@Base 2.0.0
 _ZN5boost16exception_detail10clone_implINS0_19error_info_injectorINS_17bad_function_callEEEED0Ev@Base 2.0.0
 _ZN5boost16exception_detail10clone_implINS0_19error_info_injectorINS_17bad_function_callEEEED1Ev@Base 2.0.0
 _ZN5boost16exception_detail10clone_implINS0_19error_info_injectorINS_2io12too_few_argsEEEED0Ev@Base 2.0.0
 _ZN5boost16exception_detail10clone_implINS0_19error_info_injectorINS_2io12too_few_argsEEEED1Ev@Base 2.0.0
 _ZN5boost16exception_detail10clone_implINS0_19error_info_injectorINS_2io13too_many_argsEEEED0Ev@Base 2.0.0
 _ZN5boost16exception_detail10clone_implINS0_19error_info_injectorINS_2io13too_many_argsEEEED1Ev@Base 2.0.0
 _ZN5boost16exception_detail10clone_implINS0_19error_info_injectorINS_2io17bad_format_stringEEEED0Ev@Base 2.0.0
 _ZN5boost16exception_detail10clone_implINS0_19error_info_injectorINS_2io17bad_format_stringEEEED1Ev@Base 2.0.0
 _ZN5boost16exception_detail10clone_implINS0_19error_info_injectorINS_6system12system_errorEEEED0Ev@Base 2.0.0
 _ZN5boost16exception_detail10clone_implINS0_19error_info_injectorINS_6system12system_errorEEEED1Ev@Base 2.0.0
 _ZN5boost16exception_detail10clone_implINS0_19error_info_injectorINS_9gregorian11bad_weekdayEEEED0Ev@Base 2.0.0
 _ZN5boost16exception_detail10clone_implINS0_19error_info_injectorINS_9gregorian11bad_weekdayEEEED1Ev@Base 2.0.0
 _ZN5boost16exception_detail10clone_implINS0_19error_info_injectorINS_9gregorian15bad_day_of_yearEEEED0Ev@Base 2.0.0
 _ZN5boost16exception_detail10clone_implINS0_19error_info_injectorINS_9gregorian15bad_day_of_yearEEEED1Ev@Base 2.0.0
 _ZN5boost16exception_detail10clone_implINS0_19error_info_injectorINS_9gregorian16bad_day_of_monthEEEED0Ev@Base 2.0.0
 _ZN5boost16exception_detail10clone_implINS0_19error_info_injectorINS_9gregorian16bad_day_of_monthEEEED1Ev@Base 2.0.0
 _ZN5boost16exception_detail10clone_implINS0_19error_info_injectorINS_9gregorian8bad_yearEEEED0Ev@Base 2.0.0
 _ZN5boost16exception_detail10clone_implINS0_19error_info_injectorINS_9gregorian8bad_yearEEEED1Ev@Base 2.0.0
 _ZN5boost16exception_detail10clone_implINS0_19error_info_injectorINS_9gregorian9bad_monthEEEED0Ev@Base 2.0.0
 _ZN5boost16exception_detail10clone_implINS0_19error_info_injectorINS_9gregorian9bad_monthEEEED1Ev@Base 2.0.0
 _ZN5boost16exception_detail10clone_implINS0_19error_info_injectorISt12out_of_rangeEEED0Ev@Base 2.0.0
 _ZN5boost16exception_detail10clone_implINS0_19error_info_injectorISt12out_of_rangeEEED1Ev@Base 2.0.0
 _ZN5boost16exception_detail10clone_implINS0_19error_info_injectorISt13runtime_errorEEED0Ev@Base 2.0.0
 _ZN5boost16exception_detail10clone_implINS0_19error_info_injectorISt13runtime_errorEEED1Ev@Base 2.0.0
 _ZN5boost16exception_detail19error_info_injectorINS_10filesystem22basic_filesystem_errorINS2_10basic_pathISsNS2_11path_traitsEEEEEED0Ev@Base 2.0.0
 _ZN5boost16exception_detail19error_info_injectorINS_10filesystem22basic_filesystem_errorINS2_10basic_pathISsNS2_11path_traitsEEEEEED1Ev@Base 2.0.0
 _ZN5boost16exception_detail19error_info_injectorINS_10filesystem22basic_filesystem_errorINS2_10basic_pathISsNS2_11path_traitsEEEEEED2Ev@Base 2.0.0
 _ZN5boost16exception_detail19error_info_injectorINS_12bad_weak_ptrEED0Ev@Base 2.0.0
 _ZN5boost16exception_detail19error_info_injectorINS_12bad_weak_ptrEED1Ev@Base 2.0.0
 _ZN5boost16exception_detail19error_info_injectorINS_12bad_weak_ptrEED2Ev@Base 2.0.0
 _ZN5boost16exception_detail19error_info_injectorINS_16bad_lexical_castEED0Ev@Base 2.0.0
 _ZN5boost16exception_detail19error_info_injectorINS_16bad_lexical_castEED1Ev@Base 2.0.0
 _ZN5boost16exception_detail19error_info_injectorINS_16bad_lexical_castEED2Ev@Base 2.0.0
 _ZN5boost16exception_detail19error_info_injectorINS_17bad_function_callEEC2ERKS3_@Base 2.0.0
 _ZN5boost16exception_detail19error_info_injectorINS_17bad_function_callEED0Ev@Base 2.0.0
 _ZN5boost16exception_detail19error_info_injectorINS_17bad_function_callEED1Ev@Base 2.0.0
 _ZN5boost16exception_detail19error_info_injectorINS_17bad_function_callEED2Ev@Base 2.0.0
 _ZN5boost16exception_detail19error_info_injectorINS_2io12too_few_argsEED0Ev@Base 2.0.0
 _ZN5boost16exception_detail19error_info_injectorINS_2io12too_few_argsEED1Ev@Base 2.0.0
 _ZN5boost16exception_detail19error_info_injectorINS_2io12too_few_argsEED2Ev@Base 2.0.0
 _ZN5boost16exception_detail19error_info_injectorINS_2io13too_many_argsEED0Ev@Base 2.0.0
 _ZN5boost16exception_detail19error_info_injectorINS_2io13too_many_argsEED1Ev@Base 2.0.0
 _ZN5boost16exception_detail19error_info_injectorINS_2io13too_many_argsEED2Ev@Base 2.0.0
 _ZN5boost16exception_detail19error_info_injectorINS_2io17bad_format_stringEED0Ev@Base 2.0.0
 _ZN5boost16exception_detail19error_info_injectorINS_2io17bad_format_stringEED1Ev@Base 2.0.0
 _ZN5boost16exception_detail19error_info_injectorINS_2io17bad_format_stringEED2Ev@Base 2.0.0
 _ZN5boost16exception_detail19error_info_injectorINS_6system12system_errorEEC2ERKS4_@Base 2.0.0
 _ZN5boost16exception_detail19error_info_injectorINS_6system12system_errorEED0Ev@Base 2.0.0
 _ZN5boost16exception_detail19error_info_injectorINS_6system12system_errorEED1Ev@Base 2.0.0
 _ZN5boost16exception_detail19error_info_injectorINS_6system12system_errorEED2Ev@Base 2.0.0
 _ZN5boost16exception_detail19error_info_injectorINS_9gregorian11bad_weekdayEED0Ev@Base 2.0.0
 _ZN5boost16exception_detail19error_info_injectorINS_9gregorian11bad_weekdayEED1Ev@Base 2.0.0
 _ZN5boost16exception_detail19error_info_injectorINS_9gregorian11bad_weekdayEED2Ev@Base 2.0.0
 _ZN5boost16exception_detail19error_info_injectorINS_9gregorian15bad_day_of_yearEED0Ev@Base 2.0.0
 _ZN5boost16exception_detail19error_info_injectorINS_9gregorian15bad_day_of_yearEED1Ev@Base 2.0.0
 _ZN5boost16exception_detail19error_info_injectorINS_9gregorian15bad_day_of_yearEED2Ev@Base 2.0.0
 _ZN5boost16exception_detail19error_info_injectorINS_9gregorian16bad_day_of_monthEED0Ev@Base 2.0.0
 _ZN5boost16exception_detail19error_info_injectorINS_9gregorian16bad_day_of_monthEED1Ev@Base 2.0.0
 _ZN5boost16exception_detail19error_info_injectorINS_9gregorian16bad_day_of_monthEED2Ev@Base 2.0.0
 _ZN5boost16exception_detail19error_info_injectorINS_9gregorian8bad_yearEED0Ev@Base 2.0.0
 _ZN5boost16exception_detail19error_info_injectorINS_9gregorian8bad_yearEED1Ev@Base 2.0.0
 _ZN5boost16exception_detail19error_info_injectorINS_9gregorian8bad_yearEED2Ev@Base 2.0.0
 _ZN5boost16exception_detail19error_info_injectorINS_9gregorian9bad_monthEED0Ev@Base 2.0.0
 _ZN5boost16exception_detail19error_info_injectorINS_9gregorian9bad_monthEED1Ev@Base 2.0.0
 _ZN5boost16exception_detail19error_info_injectorINS_9gregorian9bad_monthEED2Ev@Base 2.0.0
 _ZN5boost16exception_detail19error_info_injectorISt12out_of_rangeED0Ev@Base 2.0.0
 _ZN5boost16exception_detail19error_info_injectorISt12out_of_rangeED1Ev@Base 2.0.0
 _ZN5boost16exception_detail19error_info_injectorISt12out_of_rangeED2Ev@Base 2.0.0
 _ZN5boost16exception_detail19error_info_injectorISt13runtime_errorEC2ERKS3_@Base 2.0.0
 _ZN5boost16exception_detail19error_info_injectorISt13runtime_errorED0Ev@Base 2.0.0
 _ZN5boost16exception_detail19error_info_injectorISt13runtime_errorED1Ev@Base 2.0.0
 _ZN5boost16exception_detail19error_info_injectorISt13runtime_errorED2Ev@Base 2.0.0
 _ZN5boost16exception_detail20copy_boost_exceptionEPNS_9exceptionEPKS1_@Base 2.0.0
 _ZN5boost16thread_exceptionD0Ev@Base 2.0.0
 _ZN5boost16thread_exceptionD1Ev@Base 2.0.0
 _ZN5boost17bad_function_callC1Ev@Base 2.0.0
 _ZN5boost17bad_function_callD0Ev@Base 2.0.0
 _ZN5boost17bad_function_callD1Ev@Base 2.0.0
 _ZN5boost18condition_variable10notify_oneEv@Base 2.0.0
 _ZN5boost18condition_variableD1Ev@Base 2.0.0
 _ZN5boost19thread_specific_ptrISt19basic_ostringstreamIcSt11char_traitsIcESaIcEEE11delete_dataD0Ev@Base 2.0.0
 _ZN5boost19thread_specific_ptrISt19basic_ostringstreamIcSt11char_traitsIcESaIcEEE11delete_dataD1Ev@Base 2.0.0
 _ZN5boost19thread_specific_ptrISt19basic_ostringstreamIcSt11char_traitsIcESaIcEEE11delete_dataclEPv@Base 2.0.0
 _ZN5boost19thread_specific_ptrISt19basic_ostringstreamIcSt11char_traitsIcESaIcEEED1Ev@Base 2.0.0
 _ZN5boost20ptr_container_detail24reversible_ptr_containerINS0_15sequence_configIN4zeep3xml7doctype6entityESt6vectorIPvSaIS8_EEEENS_20heap_clone_allocatorEE20null_clone_allocatorILb0EE16deallocate_cloneEPKS6_@Base 2.0.0
 _ZN5boost20ptr_container_detail24reversible_ptr_containerINS0_15sequence_configIN4zeep3xml7doctype7elementESt6vectorIPvSaIS8_EEEENS_20heap_clone_allocatorEE20null_clone_allocatorILb0EE16deallocate_cloneEPKS6_@Base 2.0.0
 _ZN5boost20ptr_container_detail24reversible_ptr_containerINS0_15sequence_configIN4zeep3xml7doctype7elementESt6vectorIPvSaIS8_EEEENS_20heap_clone_allocatorEE6insertENS_17void_ptr_iteratorIN9__gnu_cxx17__normal_iteratorIPS8_SA_EES6_EEPS6_@Base 2.0.0
 _ZN5boost20ptr_container_detail24reversible_ptr_containerINS0_15sequence_configIN4zeep3xml7doctype9attributeESt6vectorIPvSaIS8_EEEENS_20heap_clone_allocatorEE20null_clone_allocatorILb0EE16deallocate_cloneEPKS6_@Base 2.0.0
 _ZN5boost20ptr_sequence_adapterIN4zeep3xml7doctype6entityESt6vectorIPvSaIS6_EENS_20heap_clone_allocatorEE4backEv@Base 2.0.0
 _ZN5boost20ptr_sequence_adapterIN4zeep3xml7doctype6entityESt6vectorIPvSaIS6_EENS_20heap_clone_allocatorEE9push_backEPS4_@Base 2.0.0
 _ZN5boost21thread_resource_errorD0Ev@Base 2.0.0
 _ZN5boost21thread_resource_errorD1Ev@Base 2.0.0
 _ZN5boost23enable_shared_from_thisIN4zeep4http10connectionEE16shared_from_thisEv@Base 2.0.0
 _ZN5boost27bad_ptr_container_operationD0Ev@Base 2.0.0
 _ZN5boost27bad_ptr_container_operationD1Ev@Base 2.0.0
 _ZN5boost2CV23simple_exception_policyItLt0ELt6ENS_9gregorian11bad_weekdayEE8on_errorEttNS0_14violation_enumE@Base 2.0.0
 _ZN5boost2CV23simple_exception_policyItLt1400ELt10000ENS_9gregorian8bad_yearEE8on_errorEttNS0_14violation_enumE@Base 2.0.0
 _ZN5boost2CV23simple_exception_policyItLt1ELt12ENS_9gregorian9bad_monthEE8on_errorEttNS0_14violation_enumE@Base 2.0.0
 _ZN5boost2CV23simple_exception_policyItLt1ELt31ENS_9gregorian16bad_day_of_monthEE8on_errorEttNS0_14violation_enumE@Base 2.0.0
 _ZN5boost2CV23simple_exception_policyItLt1ELt366ENS_9gregorian15bad_day_of_yearEE8on_errorEttNS0_14violation_enumE@Base 2.0.0
 _ZN5boost2io12format_errorD0Ev@Base 2.0.0
 _ZN5boost2io12format_errorD1Ev@Base 2.0.0
 _ZN5boost2io12too_few_argsD0Ev@Base 2.0.0
 _ZN5boost2io12too_few_argsD1Ev@Base 2.0.0
 _ZN5boost2io12too_few_argsD2Ev@Base 2.0.0
 _ZN5boost2io13too_many_argsD0Ev@Base 2.0.0
 _ZN5boost2io13too_many_argsD1Ev@Base 2.0.0
 _ZN5boost2io13too_many_argsD2Ev@Base 2.0.0
 _ZN5boost2io17bad_format_stringD0Ev@Base 2.0.0
 _ZN5boost2io17bad_format_stringD1Ev@Base 2.0.0
 _ZN5boost2io17bad_format_stringD2Ev@Base 2.0.0
 _ZN5boost2io18basic_altstringbufIcSt11char_traitsIcESaIcEE7seekoffElSt12_Ios_SeekdirSt13_Ios_Openmode@Base 2.0.0
 _ZN5boost2io18basic_altstringbufIcSt11char_traitsIcESaIcEE7seekposESt4fposI11__mbstate_tESt13_Ios_Openmode@Base 2.0.0
 _ZN5boost2io18basic_altstringbufIcSt11char_traitsIcESaIcEE8overflowEi@Base 2.0.0
 _ZN5boost2io18basic_altstringbufIcSt11char_traitsIcESaIcEE9pbackfailEi@Base 2.0.0
 _ZN5boost2io18basic_altstringbufIcSt11char_traitsIcESaIcEE9underflowEv@Base 2.0.0
 _ZN5boost2io18basic_altstringbufIcSt11char_traitsIcESaIcEED0Ev@Base 2.0.0
 _ZN5boost2io18basic_altstringbufIcSt11char_traitsIcESaIcEED1Ev@Base 2.0.0
 _ZN5boost2io22basic_oaltstringstreamIcSt11char_traitsIcESaIcEEC1EPNS0_18basic_altstringbufIcS3_S4_EE@Base 2.0.0
 _ZN5boost2io22basic_oaltstringstreamIcSt11char_traitsIcESaIcEED0Ev@Base 2.0.0
 _ZN5boost2io22basic_oaltstringstreamIcSt11char_traitsIcESaIcEED1Ev@Base 2.0.0
 _ZN5boost2io6detail10distributeIcSt11char_traitsIcESaIcERKSsEEvRNS_12basic_formatIT_T0_T1_EET2_@Base 2.0.0
 _ZN5boost2io6detail10distributeIcSt11char_traitsIcESaIcERKiEEvRNS_12basic_formatIT_T0_T1_EET2_@Base 2.0.0
 _ZN5boost2io6detail10distributeIcSt11char_traitsIcESaIcERSsEEvRNS_12basic_formatIT_T0_T1_EET2_@Base 2.0.0
 _ZN5boost2io6detail11format_itemIcSt11char_traitsIcESaIcEEC1ERKS6_@Base 2.0.0
 _ZN5boost2io6detail11format_itemIcSt11char_traitsIcESaIcEED1Ev@Base 2.0.0
 _ZN5boost2io6detail13skip_asteriskIN9__gnu_cxx17__normal_iteratorIPKcSsEESt5ctypeIcEEET_SA_SA_RKT0_@Base 2.0.0
 _ZN5boost2io6detail21maybe_throw_exceptionEhmm@Base 2.0.0
 _ZN5boost2io6detail22parse_printf_directiveIcSt11char_traitsIcESaIcEN9__gnu_cxx17__normal_iteratorIPKcSsEESt5ctypeIcEEEbRT2_RKSD_PNS1_11format_itemIT_T0_T1_EERKT3_mh@Base 2.0.0
 _ZN5boost2io6detail24upper_bound_from_fstringISsSt5ctypeIcEEEiRKT_NS5_10value_typeERKT0_h@Base 2.0.0
 _ZN5boost2io6detail3putIcSt11char_traitsIcESaIcERKSsEEvT2_RKNS1_11format_itemIT_T0_T1_EERNS_12basic_formatISA_SB_SC_E11string_typeERNSH_20internal_streambuf_tEPSt6locale@Base 2.0.0
 _ZN5boost2io6detail3putIcSt11char_traitsIcESaIcERKiEEvT2_RKNS1_11format_itemIT_T0_T1_EERNS_12basic_formatISA_SB_SC_E11string_typeERNSH_20internal_streambuf_tEPSt6locale@Base 2.0.0
 _ZN5boost2io6detail3putIcSt11char_traitsIcESaIcERSsEEvT2_RKNS1_11format_itemIT_T0_T1_EERNS_12basic_formatIS9_SA_SB_E11string_typeERNSG_20internal_streambuf_tEPSt6locale@Base 2.0.0
 _ZN5boost2io6detail6mk_strIcSt11char_traitsIcESaIcEEEvRSbIT_T0_T1_EPKS6_NS9_9size_typeElS6_St13_Ios_FmtflagsS6_b@Base 2.0.0
 _ZN5boost3_bi6bind_tIbNS0_5equalENS0_5list2INS1_IRKSsNS_4_mfi2dmISsSt4pairISsSsEEENS0_5list1INS_3argILi1EEEEEEENS0_5valueISsEEEEEclIS9_EEbRT_@Base 2.0.0
 _ZN5boost3_bi6bind_tIbNS0_5equalENS0_5list2INS1_IRKSsNS_4_mfi4cmf0IS5_N4zeep3xml7doctype6entityEEENS0_5list1INS_3argILi1EEEEEEENS0_5valueISsEEEEEclISB_EEbRKT_@Base 2.0.0
 _ZN5boost3_bi6bind_tIbNS0_5equalENS0_5list2INS1_IRKSsNS_4_mfi4cmf0IS5_N4zeep3xml7doctype6entityEEENS0_5list1INS_3argILi1EEEEEEENS0_5valueISsEEEEEclISB_EEbRT_@Base 2.0.0
 _ZN5boost3_bi6bind_tIbNS0_5equalENS0_5list2INS1_IRKSsNS_4_mfi4cmf0IS5_N4zeep3xml7doctype7elementEEENS0_5list1INS_3argILi1EEEEEEENS0_5valueISsEEEEEclISB_EEbRKT_@Base 2.0.0
 _ZN5boost3_bi6bind_tIbNS0_5equalENS0_5list2INS1_IRKSsNS_4_mfi4cmf0IS5_N4zeep3xml7doctype7elementEEENS0_5list1INS_3argILi1EEEEEEENS0_5valueISsEEEEEclISB_EEbRT_@Base 2.0.0
 _ZN5boost3_bi6bind_tIbNS0_5equalENS0_5list2INS1_IRKSsNS_4_mfi4cmf0IS5_N4zeep3xml7doctype9attributeEEENS0_5list1INS_3argILi1EEEEEEENS0_5valueISsEEEEEclISB_EEbRKT_@Base 2.0.0
 _ZN5boost3_bi6bind_tIbNS0_5equalENS0_5list2INS1_IRKSsNS_4_mfi4cmf0IS5_N4zeep3xml7doctype9attributeEEENS0_5list1INS_3argILi1EEEEEEENS0_5valueISsEEEEEclISB_EEbRT_@Base 2.0.0
 _ZN5boost3_bi6bind_tIbNS0_5equalENS0_5list2INS1_IRKSsNS_4_mfi4cmf0IS5_N4zeep6detail12handler_baseEEENS0_5list1INS_3argILi1EEEEEEENS0_5valueISsEEEEEclISA_EEbRT_@Base 2.0.0
 _ZN5boost3_bi8storage1INS_3argILi1EEEE3a1_Ev@Base 2.0.0
 _ZN5boost3_bi8storage1INS_3argILi2EEEE3a1_Ev@Base 2.0.0
 _ZN5boost3_bi8storage2INS0_5valueINS_10shared_ptrIN4zeep4http10connectionEEEEEPFNS_3argILi1EEEvEE3a2_Ev@Base 2.0.0
 _ZN5boost3_bi8storage2INS0_5valueIPN4zeep3xml17zeep_document_impEEENS_3argILi1EEEE3a2_Ev@Base 2.0.0
 _ZN5boost3_bi8storage2INS0_5valueIPN4zeep3xml25name_test_step_expressionEEENS_3argILi1EEEE3a2_Ev@Base 2.0.0
 _ZN5boost3_bi8storage2INS0_5valueIPN4zeep4http21preforked_server_baseEEEPFNS_3argILi1EEEvEE3a2_Ev@Base 2.0.0
 _ZN5boost3_bi8storage2INS0_5valueIPN4zeep4http6serverEEEPFNS_3argILi1EEEvEE3a2_Ev@Base 2.0.0
 _ZN5boost3_bi8storage2INS0_6bind_tIbNS_4_mfi3mf0IbN4zeep3xml7doctype10state_baseEEENS0_5list1INS_3argILi2EEEEEEENSB_ILi1EEEE3a2_Ev@Base 2.0.0
 _ZN5boost3_bi8storage3INS0_5valueINS_10shared_ptrIN4zeep4http10connectionEEEEEPFNS_3argILi1EEEvEPFNS9_ILi2EEEvEE3a3_Ev@Base 2.0.0
 _ZN5boost3_bi8storage3INS0_5valueIPN4zeep3xml17zeep_document_impEEENS_3argILi1EEENS8_ILi2EEEE3a3_Ev@Base 2.0.0
 _ZN5boost3_bi8storage4INS0_5valueIPN4zeep3xml17zeep_document_impEEENS_3argILi1EEENS8_ILi2EEENS8_ILi3EEEE3a4_Ev@Base 2.0.0
 _ZN5boost3_bieqIRKSsNS_4_mfi2dmISsN4zeep3xml6detail4attrEEENS0_5list1INS_3argILi1EEEEESsEENS0_6bind_tIbNS0_5equalENS0_5list2INSF_IT_T0_T1_EENS0_9add_valueIT2_E4typeEEEEERKSL_SN_@Base 2.0.0
 _ZN5boost3_bieqIRKSsNS_4_mfi2dmISsSt4pairISsSsEEENS0_5list1INS_3argILi1EEEEESsEENS0_6bind_tIbNS0_5equalENS0_5list2INSD_IT_T0_T1_EENS0_9add_valueIT2_E4typeEEEEERKSJ_SL_@Base 2.0.0
 _ZN5boost3_bieqIRKSsNS_4_mfi4cmf0IS3_N4zeep3xml7doctype6entityEEENS0_5list1INS_3argILi1EEEEESsEENS0_6bind_tIbNS0_5equalENS0_5list2INSF_IT_T0_T1_EENS0_9add_valueIT2_E4typeEEEEERKSL_SN_@Base 2.0.0
 _ZN5boost3_bieqIRKSsNS_4_mfi4cmf0IS3_N4zeep3xml7doctype7elementEEENS0_5list1INS_3argILi1EEEEESsEENS0_6bind_tIbNS0_5equalENS0_5list2INSF_IT_T0_T1_EENS0_9add_valueIT2_E4typeEEEEERKSL_SN_@Base 2.0.0
 _ZN5boost3_bieqIRKSsNS_4_mfi4cmf0IS3_N4zeep3xml7doctype9attributeEEENS0_5list1INS_3argILi1EEEEESsEENS0_6bind_tIbNS0_5equalENS0_5list2INSF_IT_T0_T1_EENS0_9add_valueIT2_E4typeEEEEERKSL_SN_@Base 2.0.0
 _ZN5boost3_bieqIRKSsNS_4_mfi4cmf0IS3_N4zeep6detail12handler_baseEEENS0_5list1INS_3argILi1EEEEESsEENS0_6bind_tIbNS0_5equalENS0_5list2INSE_IT_T0_T1_EENS0_9add_valueIT2_E4typeEEEEERKSK_SM_@Base 2.0.0
 _ZN5boost3_bigeIRKSsNS_4_mfi2dmISsN4zeep3xml12document_imp8notationEEENS0_5list1INS_3argILi1EEEEESsEENS0_6bind_tIbNS0_13greater_equalENS0_5list2INSF_IT_T0_T1_EENS0_9add_valueIT2_E4typeEEEEERKSL_SN_@Base 2.0.0
 _ZN5boost4_mfi3mf0ImNS_4asio10io_serviceEEC1EMS3_FmvE@Base 2.0.0
 _ZN5boost4asio10io_service3runEv@Base 2.0.0
 _ZN5boost4asio10io_service4postINS0_6detail7binder1INS_3_bi6bind_tIvNS_4_mfi3mf1IvN4zeep4http21preforked_server_baseERKNS_6system10error_codeEEENS5_5list2INS5_5valueIPSB_EEPFNS_3argILi1EEEvEEEEESD_EEEEvT_@Base 2.0.0
 _ZN5boost4asio10io_service4postINS0_6detail7binder1INS_3_bi6bind_tIvNS_4_mfi3mf1IvN4zeep4http6serverERKNS_6system10error_codeEEENS5_5list2INS5_5valueIPSB_EEPFNS_3argILi1EEEvEEEEESD_EEEEvT_@Base 2.0.0
 _ZN5boost4asio10io_service4postINS0_6detail7binder2INS3_13write_handlerINS0_19basic_stream_socketINS0_2ip3tcpENS0_21stream_socket_serviceIS8_EEEESt6vectorINS0_12const_bufferESaISD_EENS3_14transfer_all_tENS_3_bi6bind_tIvNS_4_mfi3mf1IvN4zeep4http10connectionERKNS_6system10error_codeEEENSH_5list2INSH_5valueINS_10shared_ptrISN_EEEEPFNS_3argILi1EEEvEEEEEEESP_iEEEEvT_@Base 2.0.0
 _ZN5boost4asio10io_service4postINS0_6detail7binder2INS_3_bi6bind_tIvNS_4_mfi3mf2IvN4zeep4http10connectionERKNS_6system10error_codeEmEENS5_5list3INS5_5valueINS_10shared_ptrISB_EEEEPFNS_3argILi1EEEvEPFNSM_ILi2EEEvEEEEESD_iEEEEvT_@Base 2.0.0
 _ZN5boost4asio10io_service4workD1Ev@Base 2.0.0
 _ZN5boost4asio10io_service7serviceD0Ev@Base 2.0.0
 _ZN5boost4asio10io_service7serviceD1Ev@Base 2.0.0
 _ZN5boost4asio10io_serviceC1Ev@Base 2.0.0
 _ZN5boost4asio10io_serviceD1Ev@Base 2.0.0
 _ZN5boost4asio11async_writeINS0_19basic_stream_socketINS0_2ip3tcpENS0_21stream_socket_serviceIS4_EEEESt6vectorINS0_12const_bufferESaIS9_EENS0_6detail14transfer_all_tENS_3_bi6bind_tIvNS_4_mfi3mf1IvN4zeep4http10connectionERKNS_6system10error_codeEEENSE_5list2INSE_5valueINS_10shared_ptrISK_EEEEPFNS_3argILi1EEEvEEEEEEEvRT_RKT0_T1_T2_@Base 2.0.0
 _ZN5boost4asio11async_writeINS0_19basic_stream_socketINS0_2ip3tcpENS0_21stream_socket_serviceIS4_EEEESt6vectorINS0_12const_bufferESaIS9_EENS_3_bi6bind_tIvNS_4_mfi3mf1IvN4zeep4http10connectionERKNS_6system10error_codeEEENSC_5list2INSC_5valueINS_10shared_ptrISI_EEEEPFNS_3argILi1EEEvEEEEEEEvRT_RKT0_T1_@Base 2.0.0
 _ZN5boost4asio11use_serviceINS0_6detail13epoll_reactorILb0EEEEERT_RNS0_10io_serviceE@Base 2.0.0
 _ZN5boost4asio11use_serviceINS0_6detail23reactive_socket_serviceINS0_2ip3tcpENS2_13epoll_reactorILb0EEEEEEERT_RNS0_10io_serviceE@Base 2.0.0
 _ZN5boost4asio12placeholders17bytes_transferredEv@Base 2.0.0
 _ZN5boost4asio12placeholders5errorEv@Base 2.0.0
 _ZN5boost4asio15basic_io_objectINS0_21stream_socket_serviceINS0_2ip3tcpEEEED2Ev@Base 2.0.0
 _ZN5boost4asio15basic_io_objectINS0_23socket_acceptor_serviceINS0_2ip3tcpEEEED2Ev@Base 2.0.0
 _ZN5boost4asio19basic_stream_socketINS0_2ip3tcpENS0_21stream_socket_serviceIS3_EEE15async_read_someINS0_17mutable_buffers_1ENS_3_bi6bind_tIvNS_4_mfi3mf2IvN4zeep4http10connectionERKNS_6system10error_codeEmEENS9_5list3INS9_5valueINS_10shared_ptrISF_EEEEPFNS_3argILi1EEEvEPFNSQ_ILi2EEEvEEEEEEEvRKT_T0_@Base 2.0.0
 _ZN5boost4asio19basic_stream_socketINS0_2ip3tcpENS0_21stream_socket_serviceIS3_EEE16async_write_someINS0_6detail17consuming_buffersINS0_12const_bufferESt6vectorISA_SaISA_EEEENS8_13write_handlerIS6_SD_NS8_14transfer_all_tENS_3_bi6bind_tIvNS_4_mfi3mf1IvN4zeep4http10connectionERKNS_6system10error_codeEEENSH_5list2INSH_5valueINS_10shared_ptrISN_EEEEPFNS_3argILi1EEEvEEEEEEEEEvRKT_T0_@Base 2.0.0
 _ZN5boost4asio19basic_stream_socketINS0_2ip3tcpENS0_21stream_socket_serviceIS3_EEEC1ERNS0_10io_serviceE@Base 2.0.0
 _ZN5boost4asio21basic_socket_acceptorINS0_2ip3tcpENS0_23socket_acceptor_serviceIS3_EEEC1ERNS0_10io_serviceE@Base 2.0.0
 _ZN5boost4asio21stream_socket_serviceINS0_2ip3tcpEE16shutdown_serviceEv@Base 2.0.0
 _ZN5boost4asio21stream_socket_serviceINS0_2ip3tcpEE6assignERNS0_6detail23reactive_socket_serviceIS3_NS5_13epoll_reactorILb0EEEE19implementation_typeERKS3_RKiRNS_6system10error_codeE@Base 2.0.0
 _ZN5boost4asio21stream_socket_serviceINS0_2ip3tcpEED0Ev@Base 2.0.0
 _ZN5boost4asio21stream_socket_serviceINS0_2ip3tcpEED1Ev@Base 2.0.0
 _ZN5boost4asio23socket_acceptor_serviceINS0_2ip3tcpEE16shutdown_serviceEv@Base 2.0.0
 _ZN5boost4asio23socket_acceptor_serviceINS0_2ip3tcpEED0Ev@Base 2.0.0
 _ZN5boost4asio23socket_acceptor_serviceINS0_2ip3tcpEED1Ev@Base 2.0.0
 _ZN5boost4asio2ip14basic_endpointINS1_3tcpEE6resizeEm@Base 2.0.0
 _ZN5boost4asio2ip16resolver_serviceINS1_3tcpEE16shutdown_serviceEv@Base 2.0.0
 _ZN5boost4asio2ip16resolver_serviceINS1_3tcpEED0Ev@Base 2.0.0
 _ZN5boost4asio2ip16resolver_serviceINS1_3tcpEED1Ev@Base 2.0.0
 _ZN5boost4asio2ip20basic_resolver_entryINS1_3tcpEEC1ERKS4_@Base 2.0.0
 _ZN5boost4asio2ip20basic_resolver_entryINS1_3tcpEED1Ev@Base 2.0.0
 _ZN5boost4asio2ip20basic_resolver_queryINS1_3tcpEED1Ev@Base 2.0.0
 _ZN5boost4asio2ip23basic_resolver_iteratorINS1_3tcpEE6createEP8addrinfoRKSsS8_@Base 2.0.0
 _ZN5boost4asio5error17get_misc_categoryEv@Base 2.0.0
 _ZN5boost4asio5error18get_netdb_categoryEv@Base 2.0.0
 _ZN5boost4asio5error21get_addrinfo_categoryEv@Base 2.0.0
 _ZN5boost4asio5error6detail12ssl_categoryD0Ev@Base 2.0.0
 _ZN5boost4asio5error6detail12ssl_categoryD1Ev@Base 2.0.0
 _ZN5boost4asio5error6detail13misc_categoryD0Ev@Base 2.0.0
 _ZN5boost4asio5error6detail13misc_categoryD1Ev@Base 2.0.0
 _ZN5boost4asio5error6detail14netdb_categoryD0Ev@Base 2.0.0
 _ZN5boost4asio5error6detail14netdb_categoryD1Ev@Base 2.0.0
 _ZN5boost4asio5error6detail17addrinfo_categoryD0Ev@Base 2.0.0
 _ZN5boost4asio5error6detail17addrinfo_categoryD1Ev@Base 2.0.0
 _ZN5boost4asio6detail10call_stackINS1_15task_io_serviceINS1_13epoll_reactorILb0EEEEEE4top_E@Base 2.0.0
 _ZN5boost4asio6detail10service_idINS0_21stream_socket_serviceINS0_2ip3tcpEEEED1Ev@Base 2.0.0
 _ZN5boost4asio6detail10service_idINS0_23socket_acceptor_serviceINS0_2ip3tcpEEEED1Ev@Base 2.0.0
 _ZN5boost4asio6detail10service_idINS0_2ip16resolver_serviceINS3_3tcpEEEED1Ev@Base 2.0.0
 _ZN5boost4asio6detail10service_idINS1_13epoll_reactorILb0EEEED1Ev@Base 2.0.0
 _ZN5boost4asio6detail10service_idINS1_14strand_serviceEED1Ev@Base 2.0.0
 _ZN5boost4asio6detail10service_idINS1_15task_io_serviceINS1_13epoll_reactorILb0EEEEEED1Ev@Base 2.0.0
 _ZN5boost4asio6detail10service_idINS1_16resolver_serviceINS0_2ip3tcpEEEED1Ev@Base 2.0.0
 _ZN5boost4asio6detail10service_idINS1_23reactive_socket_serviceINS0_2ip3tcpENS1_13epoll_reactorILb0EEEEEED1Ev@Base 2.0.0
 _ZN5boost4asio6detail10service_idINS1_27reactive_descriptor_serviceINS1_13epoll_reactorILb0EEEEEED1Ev@Base 2.0.0
 _ZN5boost4asio6detail10service_idINS1_28reactive_serial_port_serviceINS1_13epoll_reactorILb0EEEEEED1Ev@Base 2.0.0
 _ZN5boost4asio6detail10socket_ops11clear_errorERNS_6system10error_codeE@Base 2.0.0
 _ZN5boost4asio6detail10socket_ops13error_wrapperIiEET_S4_RNS_6system10error_codeE@Base 2.0.0
 _ZN5boost4asio6detail10socket_ops5closeEiRNS_6system10error_codeE@Base 2.0.0
 _ZN5boost4asio6detail10socket_ops6acceptEiP8sockaddrPmRNS_6system10error_codeE@Base 2.0.0
 _ZN5boost4asio6detail10socket_ops9inet_ntopEiPKvPcmmRNS_6system10error_codeE@Base 2.0.0
 _ZN5boost4asio6detail11handler_ptrINS1_20handler_alloc_traitsINS1_23reactive_socket_serviceINS0_2ip3tcpENS1_13epoll_reactorILb0EEEE14send_operationINS1_17consuming_buffersINS0_12const_bufferESt6vectorISC_SaISC_EEEENS1_13write_handlerINS0_19basic_stream_socketIS6_NS0_21stream_socket_serviceIS6_EEEESF_NS1_14transfer_all_tENS_3_bi6bind_tIvNS_4_mfi3mf1IvN4zeep4http10connectionERKNS_6system10error_codeEEENSN_5list2INSN_5valueINS_10shared_ptrIST_EEEEPFNS_3argILi1EEEvEEEEEEEEENS1_16reactor_op_queueIiE2opIS1B_EEEEED1Ev@Base 2.0.0
 _ZN5boost4asio6detail11handler_ptrINS1_20handler_alloc_traitsINS1_23reactive_socket_serviceINS0_2ip3tcpENS1_13epoll_reactorILb0EEEE16accept_operationINS0_12basic_socketIS6_NS0_21stream_socket_serviceIS6_EEEENS_3_bi6bind_tIvNS_4_mfi3mf1IvN4zeep4http21preforked_server_baseERKNS_6system10error_codeEEENSF_5list2INSF_5valueIPSL_EEPFNS_3argILi1EEEvEEEEEEENS1_16reactor_op_queueIiE2opIS11_EEEEED1Ev@Base 2.0.0
 _ZN5boost4asio6detail11handler_ptrINS1_20handler_alloc_traitsINS1_23reactive_socket_serviceINS0_2ip3tcpENS1_13epoll_reactorILb0EEEE16accept_operationINS0_12basic_socketIS6_NS0_21stream_socket_serviceIS6_EEEENS_3_bi6bind_tIvNS_4_mfi3mf1IvN4zeep4http6serverERKNS_6system10error_codeEEENSF_5list2INSF_5valueIPSL_EEPFNS_3argILi1EEEvEEEEEEENS1_16reactor_op_queueIiE2opIS11_EEEEED1Ev@Base 2.0.0
 _ZN5boost4asio6detail11handler_ptrINS1_20handler_alloc_traitsINS1_23reactive_socket_serviceINS0_2ip3tcpENS1_13epoll_reactorILb0EEEE17receive_operationINS0_17mutable_buffers_1ENS_3_bi6bind_tIvNS_4_mfi3mf2IvN4zeep4http10connectionERKNS_6system10error_codeEmEENSC_5list3INSC_5valueINS_10shared_ptrISI_EEEEPFNS_3argILi1EEEvEPFNST_ILi2EEEvEEEEEEENS1_16reactor_op_queueIiE2opIS12_EEEEED1Ev@Base 2.0.0
 _ZN5boost4asio6detail11handler_ptrINS1_20handler_alloc_traitsINS1_7binder1INS_3_bi6bind_tIvNS_4_mfi3mf1IvN4zeep4http21preforked_server_baseERKNS_6system10error_codeEEENS5_5list2INS5_5valueIPSB_EEPFNS_3argILi1EEEvEEEEENS0_5error11misc_errorsEEENS1_13handler_queue15handler_wrapperIST_EEEEED1Ev@Base 2.0.0
 _ZN5boost4asio6detail11handler_ptrINS1_20handler_alloc_traitsINS1_7binder1INS_3_bi6bind_tIvNS_4_mfi3mf1IvN4zeep4http21preforked_server_baseERKNS_6system10error_codeEEENS5_5list2INS5_5valueIPSB_EEPFNS_3argILi1EEEvEEEEENS0_5error12basic_errorsEEENS1_13handler_queue15handler_wrapperIST_EEEEED1Ev@Base 2.0.0
 _ZN5boost4asio6detail11handler_ptrINS1_20handler_alloc_traitsINS1_7binder1INS_3_bi6bind_tIvNS_4_mfi3mf1IvN4zeep4http21preforked_server_baseERKNS_6system10error_codeEEENS5_5list2INS5_5valueIPSB_EEPFNS_3argILi1EEEvEEEEESD_EENS1_13handler_queue15handler_wrapperISR_EEEEED1Ev@Base 2.0.0
 _ZN5boost4asio6detail11handler_ptrINS1_20handler_alloc_traitsINS1_7binder1INS_3_bi6bind_tIvNS_4_mfi3mf1IvN4zeep4http6serverERKNS_6system10error_codeEEENS5_5list2INS5_5valueIPSB_EEPFNS_3argILi1EEEvEEEEENS0_5error11misc_errorsEEENS1_13handler_queue15handler_wrapperIST_EEEEED1Ev@Base 2.0.0
 _ZN5boost4asio6detail11handler_ptrINS1_20handler_alloc_traitsINS1_7binder1INS_3_bi6bind_tIvNS_4_mfi3mf1IvN4zeep4http6serverERKNS_6system10error_codeEEENS5_5list2INS5_5valueIPSB_EEPFNS_3argILi1EEEvEEEEENS0_5error12basic_errorsEEENS1_13handler_queue15handler_wrapperIST_EEEEED1Ev@Base 2.0.0
 _ZN5boost4asio6detail11handler_ptrINS1_20handler_alloc_traitsINS1_7binder1INS_3_bi6bind_tIvNS_4_mfi3mf1IvN4zeep4http6serverERKNS_6system10error_codeEEENS5_5list2INS5_5valueIPSB_EEPFNS_3argILi1EEEvEEEEESD_EENS1_13handler_queue15handler_wrapperISR_EEEEED1Ev@Base 2.0.0
 _ZN5boost4asio6detail11handler_ptrINS1_20handler_alloc_traitsINS1_7binder2INS1_13write_handlerINS0_19basic_stream_socketINS0_2ip3tcpENS0_21stream_socket_serviceIS8_EEEESt6vectorINS0_12const_bufferESaISD_EENS1_14transfer_all_tENS_3_bi6bind_tIvNS_4_mfi3mf1IvN4zeep4http10connectionERKNS_6system10error_codeEEENSH_5list2INSH_5valueINS_10shared_ptrISN_EEEEPFNS_3argILi1EEEvEEEEEEENS0_5error12basic_errorsEiEENS1_13handler_queue15handler_wrapperIS17_EEEEED1Ev@Base 2.0.0
 _ZN5boost4asio6detail11handler_ptrINS1_20handler_alloc_traitsINS1_7binder2INS1_13write_handlerINS0_19basic_stream_socketINS0_2ip3tcpENS0_21stream_socket_serviceIS8_EEEESt6vectorINS0_12const_bufferESaISD_EENS1_14transfer_all_tENS_3_bi6bind_tIvNS_4_mfi3mf1IvN4zeep4http10connectionERKNS_6system10error_codeEEENSH_5list2INSH_5valueINS_10shared_ptrISN_EEEEPFNS_3argILi1EEEvEEEEEEESP_iEENS1_13handler_queue15handler_wrapperIS15_EEEEED1Ev@Base 2.0.0
 _ZN5boost4asio6detail11handler_ptrINS1_20handler_alloc_traitsINS1_7binder2INS1_13write_handlerINS0_19basic_stream_socketINS0_2ip3tcpENS0_21stream_socket_serviceIS8_EEEESt6vectorINS0_12const_bufferESaISD_EENS1_14transfer_all_tENS_3_bi6bind_tIvNS_4_mfi3mf1IvN4zeep4http10connectionERKNS_6system10error_codeEEENSH_5list2INSH_5valueINS_10shared_ptrISN_EEEEPFNS_3argILi1EEEvEEEEEEESP_mEENS1_13handler_queue15handler_wrapperIS15_EEEEED1Ev@Base 2.0.0
 _ZN5boost4asio6detail11handler_ptrINS1_20handler_alloc_traitsINS1_7binder2INS_3_bi6bind_tIvNS_4_mfi3mf1IvN4zeep4http10connectionERKNS_6system10error_codeEEENS5_5list2INS5_5valueINS_10shared_ptrISB_EEEEPFNS_3argILi1EEEvEEEEESD_mEENS1_13handler_queue15handler_wrapperISS_EEEEED1Ev@Base 2.0.0
 _ZN5boost4asio6detail11handler_ptrINS1_20handler_alloc_traitsINS1_7binder2INS_3_bi6bind_tIvNS_4_mfi3mf2IvN4zeep4http10connectionERKNS_6system10error_codeEmEENS5_5list3INS5_5valueINS_10shared_ptrISB_EEEEPFNS_3argILi1EEEvEPFNSM_ILi2EEEvEEEEENS0_5error12basic_errorsEiEENS1_13handler_queue15handler_wrapperISX_EEEEED1Ev@Base 2.0.0
 _ZN5boost4asio6detail11handler_ptrINS1_20handler_alloc_traitsINS1_7binder2INS_3_bi6bind_tIvNS_4_mfi3mf2IvN4zeep4http10connectionERKNS_6system10error_codeEmEENS5_5list3INS5_5valueINS_10shared_ptrISB_EEEEPFNS_3argILi1EEEvEPFNSM_ILi2EEEvEEEEESD_iEENS1_13handler_queue15handler_wrapperISV_EEEEED1Ev@Base 2.0.0
 _ZN5boost4asio6detail11handler_ptrINS1_20handler_alloc_traitsINS1_7binder2INS_3_bi6bind_tIvNS_4_mfi3mf2IvN4zeep4http10connectionERKNS_6system10error_codeEmEENS5_5list3INS5_5valueINS_10shared_ptrISB_EEEEPFNS_3argILi1EEEvEPFNSM_ILi2EEEvEEEEESD_mEENS1_13handler_queue15handler_wrapperISV_EEEEED1Ev@Base 2.0.0
 _ZN5boost4asio6detail11posix_event6signalINS1_11scoped_lockINS1_11posix_mutexEEEEEvRT_@Base 2.0.0
 _ZN5boost4asio6detail11posix_mutex4lockEv@Base 2.0.0
 _ZN5boost4asio6detail11posix_mutex6unlockEv@Base 2.0.0
 _ZN5boost4asio6detail11posix_mutexC1Ev@Base 2.0.0
 _ZN5boost4asio6detail11scoped_lockINS1_11posix_mutexEE4lockEv@Base 2.0.0
 _ZN5boost4asio6detail11scoped_lockINS1_11posix_mutexEEC1ERS3_@Base 2.0.0
 _ZN5boost4asio6detail11scoped_lockINS1_11posix_mutexEED1Ev@Base 2.0.0
 _ZN5boost4asio6detail11throw_errorERKNS_6system10error_codeE@Base 2.0.0
 _ZN5boost4asio6detail12service_baseINS0_21stream_socket_serviceINS0_2ip3tcpEEEE2idE@Base 2.0.0
 _ZN5boost4asio6detail12service_baseINS0_21stream_socket_serviceINS0_2ip3tcpEEEED0Ev@Base 2.0.0
 _ZN5boost4asio6detail12service_baseINS0_21stream_socket_serviceINS0_2ip3tcpEEEED1Ev@Base 2.0.0
 _ZN5boost4asio6detail12service_baseINS0_23socket_acceptor_serviceINS0_2ip3tcpEEEE2idE@Base 2.0.0
 _ZN5boost4asio6detail12service_baseINS0_23socket_acceptor_serviceINS0_2ip3tcpEEEED0Ev@Base 2.0.0
 _ZN5boost4asio6detail12service_baseINS0_23socket_acceptor_serviceINS0_2ip3tcpEEEED1Ev@Base 2.0.0
 _ZN5boost4asio6detail12service_baseINS0_2ip16resolver_serviceINS3_3tcpEEEE2idE@Base 2.0.0
 _ZN5boost4asio6detail12service_baseINS0_2ip16resolver_serviceINS3_3tcpEEEED0Ev@Base 2.0.0
 _ZN5boost4asio6detail12service_baseINS0_2ip16resolver_serviceINS3_3tcpEEEED1Ev@Base 2.0.0
 _ZN5boost4asio6detail12service_baseINS1_13epoll_reactorILb0EEEE2idE@Base 2.0.0
 _ZN5boost4asio6detail12service_baseINS1_13epoll_reactorILb0EEEED0Ev@Base 2.0.0
 _ZN5boost4asio6detail12service_baseINS1_13epoll_reactorILb0EEEED1Ev@Base 2.0.0
 _ZN5boost4asio6detail12service_baseINS1_14strand_serviceEE2idE@Base 2.0.0
 _ZN5boost4asio6detail12service_baseINS1_15task_io_serviceINS1_13epoll_reactorILb0EEEEEE2idE@Base 2.0.0
 _ZN5boost4asio6detail12service_baseINS1_15task_io_serviceINS1_13epoll_reactorILb0EEEEEED0Ev@Base 2.0.0
 _ZN5boost4asio6detail12service_baseINS1_15task_io_serviceINS1_13epoll_reactorILb0EEEEEED1Ev@Base 2.0.0
 _ZN5boost4asio6detail12service_baseINS1_16resolver_serviceINS0_2ip3tcpEEEE2idE@Base 2.0.0
 _ZN5boost4asio6detail12service_baseINS1_16resolver_serviceINS0_2ip3tcpEEEED0Ev@Base 2.0.0
 _ZN5boost4asio6detail12service_baseINS1_16resolver_serviceINS0_2ip3tcpEEEED1Ev@Base 2.0.0
 _ZN5boost4asio6detail12service_baseINS1_23reactive_socket_serviceINS0_2ip3tcpENS1_13epoll_reactorILb0EEEEEE2idE@Base 2.0.0
 _ZN5boost4asio6detail12service_baseINS1_23reactive_socket_serviceINS0_2ip3tcpENS1_13epoll_reactorILb0EEEEEED0Ev@Base 2.0.0
 _ZN5boost4asio6detail12service_baseINS1_23reactive_socket_serviceINS0_2ip3tcpENS1_13epoll_reactorILb0EEEEEED1Ev@Base 2.0.0
 _ZN5boost4asio6detail12service_baseINS1_27reactive_descriptor_serviceINS1_13epoll_reactorILb0EEEEEE2idE@Base 2.0.0
 _ZN5boost4asio6detail12service_baseINS1_28reactive_serial_port_serviceINS1_13epoll_reactorILb0EEEEEE2idE@Base 2.0.0
 _ZN5boost4asio6detail13epoll_reactorILb0EE16close_descriptorEiRNS3_19per_descriptor_dataE@Base 2.0.0
 _ZN5boost4asio6detail13epoll_reactorILb0EE16shutdown_serviceEv@Base 2.0.0
 _ZN5boost4asio6detail13epoll_reactorILb0EE19register_descriptorEiRNS3_19per_descriptor_dataE@Base 2.0.0
 _ZN5boost4asio6detail13epoll_reactorILb0EE30complete_operations_and_timersERNS1_11scoped_lockINS1_11posix_mutexEEE@Base 2.0.0
 _ZN5boost4asio6detail13epoll_reactorILb0EE3runEb@Base 2.0.0
 _ZN5boost4asio6detail13epoll_reactorILb0EE9interruptEv@Base 2.0.0
 _ZN5boost4asio6detail13epoll_reactorILb0EEC1ERNS0_10io_serviceE@Base 2.0.0
 _ZN5boost4asio6detail13epoll_reactorILb0EED0Ev@Base 2.0.0
 _ZN5boost4asio6detail13epoll_reactorILb0EED1Ev@Base 2.0.0
 _ZN5boost4asio6detail13handler_queue10scoped_ptrD1Ev@Base 2.0.0
 _ZN5boost4asio6detail13handler_queue15handler_wrapperINS1_7binder1INS_3_bi6bind_tIvNS_4_mfi3mf1IvN4zeep4http21preforked_server_baseERKNS_6system10error_codeEEENS5_5list2INS5_5valueIPSB_EEPFNS_3argILi1EEEvEEEEENS0_5error11misc_errorsEEEE10do_destroyEPNS2_7handlerE@Base 2.0.0
 _ZN5boost4asio6detail13handler_queue15handler_wrapperINS1_7binder1INS_3_bi6bind_tIvNS_4_mfi3mf1IvN4zeep4http21preforked_server_baseERKNS_6system10error_codeEEENS5_5list2INS5_5valueIPSB_EEPFNS_3argILi1EEEvEEEEENS0_5error11misc_errorsEEEE7do_callEPNS2_7handlerE@Base 2.0.0
 _ZN5boost4asio6detail13handler_queue15handler_wrapperINS1_7binder1INS_3_bi6bind_tIvNS_4_mfi3mf1IvN4zeep4http21preforked_server_baseERKNS_6system10error_codeEEENS5_5list2INS5_5valueIPSB_EEPFNS_3argILi1EEEvEEEEENS0_5error12basic_errorsEEEE10do_destroyEPNS2_7handlerE@Base 2.0.0
 _ZN5boost4asio6detail13handler_queue15handler_wrapperINS1_7binder1INS_3_bi6bind_tIvNS_4_mfi3mf1IvN4zeep4http21preforked_server_baseERKNS_6system10error_codeEEENS5_5list2INS5_5valueIPSB_EEPFNS_3argILi1EEEvEEEEENS0_5error12basic_errorsEEEE7do_callEPNS2_7handlerE@Base 2.0.0
 _ZN5boost4asio6detail13handler_queue15handler_wrapperINS1_7binder1INS_3_bi6bind_tIvNS_4_mfi3mf1IvN4zeep4http21preforked_server_baseERKNS_6system10error_codeEEENS5_5list2INS5_5valueIPSB_EEPFNS_3argILi1EEEvEEEEESD_EEE10do_destroyEPNS2_7handlerE@Base 2.0.0
 _ZN5boost4asio6detail13handler_queue15handler_wrapperINS1_7binder1INS_3_bi6bind_tIvNS_4_mfi3mf1IvN4zeep4http21preforked_server_baseERKNS_6system10error_codeEEENS5_5list2INS5_5valueIPSB_EEPFNS_3argILi1EEEvEEEEESD_EEE7do_callEPNS2_7handlerE@Base 2.0.0
 _ZN5boost4asio6detail13handler_queue15handler_wrapperINS1_7binder1INS_3_bi6bind_tIvNS_4_mfi3mf1IvN4zeep4http6serverERKNS_6system10error_codeEEENS5_5list2INS5_5valueIPSB_EEPFNS_3argILi1EEEvEEEEENS0_5error11misc_errorsEEEE10do_destroyEPNS2_7handlerE@Base 2.0.0
 _ZN5boost4asio6detail13handler_queue15handler_wrapperINS1_7binder1INS_3_bi6bind_tIvNS_4_mfi3mf1IvN4zeep4http6serverERKNS_6system10error_codeEEENS5_5list2INS5_5valueIPSB_EEPFNS_3argILi1EEEvEEEEENS0_5error11misc_errorsEEEE7do_callEPNS2_7handlerE@Base 2.0.0
 _ZN5boost4asio6detail13handler_queue15handler_wrapperINS1_7binder1INS_3_bi6bind_tIvNS_4_mfi3mf1IvN4zeep4http6serverERKNS_6system10error_codeEEENS5_5list2INS5_5valueIPSB_EEPFNS_3argILi1EEEvEEEEENS0_5error12basic_errorsEEEE10do_destroyEPNS2_7handlerE@Base 2.0.0
 _ZN5boost4asio6detail13handler_queue15handler_wrapperINS1_7binder1INS_3_bi6bind_tIvNS_4_mfi3mf1IvN4zeep4http6serverERKNS_6system10error_codeEEENS5_5list2INS5_5valueIPSB_EEPFNS_3argILi1EEEvEEEEENS0_5error12basic_errorsEEEE7do_callEPNS2_7handlerE@Base 2.0.0
 _ZN5boost4asio6detail13handler_queue15handler_wrapperINS1_7binder1INS_3_bi6bind_tIvNS_4_mfi3mf1IvN4zeep4http6serverERKNS_6system10error_codeEEENS5_5list2INS5_5valueIPSB_EEPFNS_3argILi1EEEvEEEEESD_EEE10do_destroyEPNS2_7handlerE@Base 2.0.0
 _ZN5boost4asio6detail13handler_queue15handler_wrapperINS1_7binder1INS_3_bi6bind_tIvNS_4_mfi3mf1IvN4zeep4http6serverERKNS_6system10error_codeEEENS5_5list2INS5_5valueIPSB_EEPFNS_3argILi1EEEvEEEEESD_EEE7do_callEPNS2_7handlerE@Base 2.0.0
 _ZN5boost4asio6detail13handler_queue15handler_wrapperINS1_7binder2INS1_13write_handlerINS0_19basic_stream_socketINS0_2ip3tcpENS0_21stream_socket_serviceIS8_EEEESt6vectorINS0_12const_bufferESaISD_EENS1_14transfer_all_tENS_3_bi6bind_tIvNS_4_mfi3mf1IvN4zeep4http10connectionERKNS_6system10error_codeEEENSH_5list2INSH_5valueINS_10shared_ptrISN_EEEEPFNS_3argILi1EEEvEEEEEEENS0_5error12basic_errorsEiEEE10do_destroyEPNS2_7handlerE@Base 2.0.0
 _ZN5boost4asio6detail13handler_queue15handler_wrapperINS1_7binder2INS1_13write_handlerINS0_19basic_stream_socketINS0_2ip3tcpENS0_21stream_socket_serviceIS8_EEEESt6vectorINS0_12const_bufferESaISD_EENS1_14transfer_all_tENS_3_bi6bind_tIvNS_4_mfi3mf1IvN4zeep4http10connectionERKNS_6system10error_codeEEENSH_5list2INSH_5valueINS_10shared_ptrISN_EEEEPFNS_3argILi1EEEvEEEEEEENS0_5error12basic_errorsEiEEE7do_callEPNS2_7handlerE@Base 2.0.0
 _ZN5boost4asio6detail13handler_queue15handler_wrapperINS1_7binder2INS1_13write_handlerINS0_19basic_stream_socketINS0_2ip3tcpENS0_21stream_socket_serviceIS8_EEEESt6vectorINS0_12const_bufferESaISD_EENS1_14transfer_all_tENS_3_bi6bind_tIvNS_4_mfi3mf1IvN4zeep4http10connectionERKNS_6system10error_codeEEENSH_5list2INSH_5valueINS_10shared_ptrISN_EEEEPFNS_3argILi1EEEvEEEEEEESP_iEEE10do_destroyEPNS2_7handlerE@Base 2.0.0
 _ZN5boost4asio6detail13handler_queue15handler_wrapperINS1_7binder2INS1_13write_handlerINS0_19basic_stream_socketINS0_2ip3tcpENS0_21stream_socket_serviceIS8_EEEESt6vectorINS0_12const_bufferESaISD_EENS1_14transfer_all_tENS_3_bi6bind_tIvNS_4_mfi3mf1IvN4zeep4http10connectionERKNS_6system10error_codeEEENSH_5list2INSH_5valueINS_10shared_ptrISN_EEEEPFNS_3argILi1EEEvEEEEEEESP_iEEE7do_callEPNS2_7handlerE@Base 2.0.0
 _ZN5boost4asio6detail13handler_queue15handler_wrapperINS1_7binder2INS1_13write_handlerINS0_19basic_stream_socketINS0_2ip3tcpENS0_21stream_socket_serviceIS8_EEEESt6vectorINS0_12const_bufferESaISD_EENS1_14transfer_all_tENS_3_bi6bind_tIvNS_4_mfi3mf1IvN4zeep4http10connectionERKNS_6system10error_codeEEENSH_5list2INSH_5valueINS_10shared_ptrISN_EEEEPFNS_3argILi1EEEvEEEEEEESP_mEEE10do_destroyEPNS2_7handlerE@Base 2.0.0
 _ZN5boost4asio6detail13handler_queue15handler_wrapperINS1_7binder2INS1_13write_handlerINS0_19basic_stream_socketINS0_2ip3tcpENS0_21stream_socket_serviceIS8_EEEESt6vectorINS0_12const_bufferESaISD_EENS1_14transfer_all_tENS_3_bi6bind_tIvNS_4_mfi3mf1IvN4zeep4http10connectionERKNS_6system10error_codeEEENSH_5list2INSH_5valueINS_10shared_ptrISN_EEEEPFNS_3argILi1EEEvEEEEEEESP_mEEE7do_callEPNS2_7handlerE@Base 2.0.0
 _ZN5boost4asio6detail13handler_queue15handler_wrapperINS1_7binder2INS_3_bi6bind_tIvNS_4_mfi3mf1IvN4zeep4http10connectionERKNS_6system10error_codeEEENS5_5list2INS5_5valueINS_10shared_ptrISB_EEEEPFNS_3argILi1EEEvEEEEESD_mEEE10do_destroyEPNS2_7handlerE@Base 2.0.0
 _ZN5boost4asio6detail13handler_queue15handler_wrapperINS1_7binder2INS_3_bi6bind_tIvNS_4_mfi3mf1IvN4zeep4http10connectionERKNS_6system10error_codeEEENS5_5list2INS5_5valueINS_10shared_ptrISB_EEEEPFNS_3argILi1EEEvEEEEESD_mEEE7do_callEPNS2_7handlerE@Base 2.0.0
 _ZN5boost4asio6detail13handler_queue15handler_wrapperINS1_7binder2INS_3_bi6bind_tIvNS_4_mfi3mf2IvN4zeep4http10connectionERKNS_6system10error_codeEmEENS5_5list3INS5_5valueINS_10shared_ptrISB_EEEEPFNS_3argILi1EEEvEPFNSM_ILi2EEEvEEEEENS0_5error12basic_errorsEiEEE10do_destroyEPNS2_7handlerE@Base 2.0.0
 _ZN5boost4asio6detail13handler_queue15handler_wrapperINS1_7binder2INS_3_bi6bind_tIvNS_4_mfi3mf2IvN4zeep4http10connectionERKNS_6system10error_codeEmEENS5_5list3INS5_5valueINS_10shared_ptrISB_EEEEPFNS_3argILi1EEEvEPFNSM_ILi2EEEvEEEEENS0_5error12basic_errorsEiEEE7do_callEPNS2_7handlerE@Base 2.0.0
 _ZN5boost4asio6detail13handler_queue15handler_wrapperINS1_7binder2INS_3_bi6bind_tIvNS_4_mfi3mf2IvN4zeep4http10connectionERKNS_6system10error_codeEmEENS5_5list3INS5_5valueINS_10shared_ptrISB_EEEEPFNS_3argILi1EEEvEPFNSM_ILi2EEEvEEEEESD_iEEE10do_destroyEPNS2_7handlerE@Base 2.0.0
 _ZN5boost4asio6detail13handler_queue15handler_wrapperINS1_7binder2INS_3_bi6bind_tIvNS_4_mfi3mf2IvN4zeep4http10connectionERKNS_6system10error_codeEmEENS5_5list3INS5_5valueINS_10shared_ptrISB_EEEEPFNS_3argILi1EEEvEPFNSM_ILi2EEEvEEEEESD_iEEE7do_callEPNS2_7handlerE@Base 2.0.0
 _ZN5boost4asio6detail13handler_queue15handler_wrapperINS1_7binder2INS_3_bi6bind_tIvNS_4_mfi3mf2IvN4zeep4http10connectionERKNS_6system10error_codeEmEENS5_5list3INS5_5valueINS_10shared_ptrISB_EEEEPFNS_3argILi1EEEvEPFNSM_ILi2EEEvEEEEESD_mEEE10do_destroyEPNS2_7handlerE@Base 2.0.0
 _ZN5boost4asio6detail13handler_queue15handler_wrapperINS1_7binder2INS_3_bi6bind_tIvNS_4_mfi3mf2IvN4zeep4http10connectionERKNS_6system10error_codeEmEENS5_5list3INS5_5valueINS_10shared_ptrISB_EEEEPFNS_3argILi1EEEvEPFNSM_ILi2EEEvEEEEESD_mEEE7do_callEPNS2_7handlerE@Base 2.0.0
 _ZN5boost4asio6detail13socket_holder5resetEi@Base 2.0.0
 _ZN5boost4asio6detail13socket_holderD1Ev@Base 2.0.0
 _ZN5boost4asio6detail13write_handlerINS0_19basic_stream_socketINS0_2ip3tcpENS0_21stream_socket_serviceIS5_EEEESt6vectorINS0_12const_bufferESaISA_EENS1_14transfer_all_tENS_3_bi6bind_tIvNS_4_mfi3mf1IvN4zeep4http10connectionERKNS_6system10error_codeEEENSE_5list2INSE_5valueINS_10shared_ptrISK_EEEEPFNS_3argILi1EEEvEEEEEEC1ERKS11_@Base 2.0.0
 _ZN5boost4asio6detail13write_handlerINS0_19basic_stream_socketINS0_2ip3tcpENS0_21stream_socket_serviceIS5_EEEESt6vectorINS0_12const_bufferESaISA_EENS1_14transfer_all_tENS_3_bi6bind_tIvNS_4_mfi3mf1IvN4zeep4http10connectionERKNS_6system10error_codeEEENSE_5list2INSE_5valueINS_10shared_ptrISK_EEEEPFNS_3argILi1EEEvEEEEEED1Ev@Base 2.0.0
 _ZN5boost4asio6detail13write_handlerINS0_19basic_stream_socketINS0_2ip3tcpENS0_21stream_socket_serviceIS5_EEEESt6vectorINS0_12const_bufferESaISA_EENS1_14transfer_all_tENS_3_bi6bind_tIvNS_4_mfi3mf1IvN4zeep4http10connectionERKNS_6system10error_codeEEENSE_5list2INSE_5valueINS_10shared_ptrISK_EEEEPFNS_3argILi1EEEvEEEEEEclESO_m@Base 2.0.0
 _ZN5boost4asio6detail15task_io_serviceINS1_13epoll_reactorILb0EEEE15handler_cleanupD1Ev@Base 2.0.0
 _ZN5boost4asio6detail15task_io_serviceINS1_13epoll_reactorILb0EEEE16shutdown_serviceEv@Base 2.0.0
 _ZN5boost4asio6detail15task_io_serviceINS1_13epoll_reactorILb0EEEE25interrupt_one_idle_threadERNS1_11scoped_lockINS1_11posix_mutexEEE@Base 2.0.0
 _ZN5boost4asio6detail15task_io_serviceINS1_13epoll_reactorILb0EEEE3runERNS_6system10error_codeE@Base 2.0.0
 _ZN5boost4asio6detail15task_io_serviceINS1_13epoll_reactorILb0EEEED0Ev@Base 2.0.0
 _ZN5boost4asio6detail15task_io_serviceINS1_13epoll_reactorILb0EEEED1Ev@Base 2.0.0
 _ZN5boost4asio6detail16reactor_op_queueIiE17enqueue_operationINS1_23reactive_socket_serviceINS0_2ip3tcpENS1_13epoll_reactorILb0EEEE17receive_operationINS0_17mutable_buffers_1ENS_3_bi6bind_tIvNS_4_mfi3mf2IvN4zeep4http10connectionERKNS_6system10error_codeEmEENSD_5list3INSD_5valueINS_10shared_ptrISJ_EEEEPFNS_3argILi1EEEvEPFNSU_ILi2EEEvEEEEEEEEEbiT_@Base 2.0.0
 _ZN5boost4asio6detail16reactor_op_queueIiE22perform_all_operationsEiRKNS_6system10error_codeE@Base 2.0.0
 _ZN5boost4asio6detail16reactor_op_queueIiE2opINS1_23reactive_socket_serviceINS0_2ip3tcpENS1_13epoll_reactorILb0EEEE14send_operationINS1_17consuming_buffersINS0_12const_bufferESt6vectorISD_SaISD_EEEENS1_13write_handlerINS0_19basic_stream_socketIS7_NS0_21stream_socket_serviceIS7_EEEESG_NS1_14transfer_all_tENS_3_bi6bind_tIvNS_4_mfi3mf1IvN4zeep4http10connectionERKNS_6system10error_codeEEENSO_5list2INSO_5valueINS_10shared_ptrISU_EEEEPFNS_3argILi1EEEvEEEEEEEEEE10do_destroyEPNS3_7op_baseE@Base 2.0.0
 _ZN5boost4asio6detail16reactor_op_queueIiE2opINS1_23reactive_socket_serviceINS0_2ip3tcpENS1_13epoll_reactorILb0EEEE14send_operationINS1_17consuming_buffersINS0_12const_bufferESt6vectorISD_SaISD_EEEENS1_13write_handlerINS0_19basic_stream_socketIS7_NS0_21stream_socket_serviceIS7_EEEESG_NS1_14transfer_all_tENS_3_bi6bind_tIvNS_4_mfi3mf1IvN4zeep4http10connectionERKNS_6system10error_codeEEENSO_5list2INSO_5valueINS_10shared_ptrISU_EEEEPFNS_3argILi1EEEvEEEEEEEEEE10do_performEPNS3_7op_baseERSW_Rm@Base 2.0.0
 _ZN5boost4asio6detail16reactor_op_queueIiE2opINS1_23reactive_socket_serviceINS0_2ip3tcpENS1_13epoll_reactorILb0EEEE14send_operationINS1_17consuming_buffersINS0_12const_bufferESt6vectorISD_SaISD_EEEENS1_13write_handlerINS0_19basic_stream_socketIS7_NS0_21stream_socket_serviceIS7_EEEESG_NS1_14transfer_all_tENS_3_bi6bind_tIvNS_4_mfi3mf1IvN4zeep4http10connectionERKNS_6system10error_codeEEENSO_5list2INSO_5valueINS_10shared_ptrISU_EEEEPFNS_3argILi1EEEvEEEEEEEEEE11do_completeEPNS3_7op_baseESY_m@Base 2.0.0
 _ZN5boost4asio6detail16reactor_op_queueIiE2opINS1_23reactive_socket_serviceINS0_2ip3tcpENS1_13epoll_reactorILb0EEEE16accept_operationINS0_12basic_socketIS7_NS0_21stream_socket_serviceIS7_EEEENS_3_bi6bind_tIvNS_4_mfi3mf1IvN4zeep4http21preforked_server_baseERKNS_6system10error_codeEEENSG_5list2INSG_5valueIPSM_EEPFNS_3argILi1EEEvEEEEEEEE10do_destroyEPNS3_7op_baseE@Base 2.0.0
 _ZN5boost4asio6detail16reactor_op_queueIiE2opINS1_23reactive_socket_serviceINS0_2ip3tcpENS1_13epoll_reactorILb0EEEE16accept_operationINS0_12basic_socketIS7_NS0_21stream_socket_serviceIS7_EEEENS_3_bi6bind_tIvNS_4_mfi3mf1IvN4zeep4http21preforked_server_baseERKNS_6system10error_codeEEENSG_5list2INSG_5valueIPSM_EEPFNS_3argILi1EEEvEEEEEEEE10do_performEPNS3_7op_baseERSO_Rm@Base 2.0.0
 _ZN5boost4asio6detail16reactor_op_queueIiE2opINS1_23reactive_socket_serviceINS0_2ip3tcpENS1_13epoll_reactorILb0EEEE16accept_operationINS0_12basic_socketIS7_NS0_21stream_socket_serviceIS7_EEEENS_3_bi6bind_tIvNS_4_mfi3mf1IvN4zeep4http21preforked_server_baseERKNS_6system10error_codeEEENSG_5list2INSG_5valueIPSM_EEPFNS_3argILi1EEEvEEEEEEEE11do_completeEPNS3_7op_baseESQ_m@Base 2.0.0
 _ZN5boost4asio6detail16reactor_op_queueIiE2opINS1_23reactive_socket_serviceINS0_2ip3tcpENS1_13epoll_reactorILb0EEEE16accept_operationINS0_12basic_socketIS7_NS0_21stream_socket_serviceIS7_EEEENS_3_bi6bind_tIvNS_4_mfi3mf1IvN4zeep4http6serverERKNS_6system10error_codeEEENSG_5list2INSG_5valueIPSM_EEPFNS_3argILi1EEEvEEEEEEEE10do_destroyEPNS3_7op_baseE@Base 2.0.0
 _ZN5boost4asio6detail16reactor_op_queueIiE2opINS1_23reactive_socket_serviceINS0_2ip3tcpENS1_13epoll_reactorILb0EEEE16accept_operationINS0_12basic_socketIS7_NS0_21stream_socket_serviceIS7_EEEENS_3_bi6bind_tIvNS_4_mfi3mf1IvN4zeep4http6serverERKNS_6system10error_codeEEENSG_5list2INSG_5valueIPSM_EEPFNS_3argILi1EEEvEEEEEEEE10do_performEPNS3_7op_baseERSO_Rm@Base 2.0.0
 _ZN5boost4asio6detail16reactor_op_queueIiE2opINS1_23reactive_socket_serviceINS0_2ip3tcpENS1_13epoll_reactorILb0EEEE16accept_operationINS0_12basic_socketIS7_NS0_21stream_socket_serviceIS7_EEEENS_3_bi6bind_tIvNS_4_mfi3mf1IvN4zeep4http6serverERKNS_6system10error_codeEEENSG_5list2INSG_5valueIPSM_EEPFNS_3argILi1EEEvEEEEEEEE11do_completeEPNS3_7op_baseESQ_m@Base 2.0.0
 _ZN5boost4asio6detail16reactor_op_queueIiE2opINS1_23reactive_socket_serviceINS0_2ip3tcpENS1_13epoll_reactorILb0EEEE17receive_operationINS0_17mutable_buffers_1ENS_3_bi6bind_tIvNS_4_mfi3mf2IvN4zeep4http10connectionERKNS_6system10error_codeEmEENSD_5list3INSD_5valueINS_10shared_ptrISJ_EEEEPFNS_3argILi1EEEvEPFNSU_ILi2EEEvEEEEEEEE10do_destroyEPNS3_7op_baseE@Base 2.0.0
 _ZN5boost4asio6detail16reactor_op_queueIiE2opINS1_23reactive_socket_serviceINS0_2ip3tcpENS1_13epoll_reactorILb0EEEE17receive_operationINS0_17mutable_buffers_1ENS_3_bi6bind_tIvNS_4_mfi3mf2IvN4zeep4http10connectionERKNS_6system10error_codeEmEENSD_5list3INSD_5valueINS_10shared_ptrISJ_EEEEPFNS_3argILi1EEEvEPFNSU_ILi2EEEvEEEEEEEE10do_performEPNS3_7op_baseERSL_Rm@Base 2.0.0
 _ZN5boost4asio6detail16reactor_op_queueIiE2opINS1_23reactive_socket_serviceINS0_2ip3tcpENS1_13epoll_reactorILb0EEEE17receive_operationINS0_17mutable_buffers_1ENS_3_bi6bind_tIvNS_4_mfi3mf2IvN4zeep4http10connectionERKNS_6system10error_codeEmEENSD_5list3INSD_5valueINS_10shared_ptrISJ_EEEEPFNS_3argILi1EEEvEPFNSU_ILi2EEEvEEEEEEEE11do_completeEPNS3_7op_baseESN_m@Base 2.0.0
 _ZN5boost4asio6detail16reactor_op_queueIiEC1Ev@Base 2.0.0
 _ZN5boost4asio6detail16reactor_op_queueIiED1Ev@Base 2.0.0
 _ZN5boost4asio6detail16resolver_serviceINS0_2ip3tcpEE16shutdown_serviceEv@Base 2.0.0
 _ZN5boost4asio6detail16resolver_serviceINS0_2ip3tcpEED0Ev@Base 2.0.0
 _ZN5boost4asio6detail16resolver_serviceINS0_2ip3tcpEED1Ev@Base 2.0.0
 _ZN5boost4asio6detail16service_registry11use_serviceINS0_23socket_acceptor_serviceINS0_2ip3tcpEEEEERT_v@Base 2.0.0
 _ZN5boost4asio6detail16service_registry11use_serviceINS0_2ip16resolver_serviceINS4_3tcpEEEEERT_v@Base 2.0.0
 _ZN5boost4asio6detail16service_registry11use_serviceINS1_15task_io_serviceINS1_13epoll_reactorILb0EEEEEEERT_v@Base 2.0.0
 _ZN5boost4asio6detail16service_registry11use_serviceINS1_23reactive_socket_serviceINS0_2ip3tcpENS1_13epoll_reactorILb0EEEEEEERT_v@Base 2.0.0
 _ZN5boost4asio6detail17consuming_buffersINS0_12const_bufferESt6vectorIS3_SaIS3_EEED1Ev@Base 2.0.0
 _ZN5boost4asio6detail23reactive_socket_serviceINS0_2ip3tcpENS1_13epoll_reactorILb0EEEE14send_operationINS1_17consuming_buffersINS0_12const_bufferESt6vectorISA_SaISA_EEEENS1_13write_handlerINS0_19basic_stream_socketIS4_NS0_21stream_socket_serviceIS4_EEEESD_NS1_14transfer_all_tENS_3_bi6bind_tIvNS_4_mfi3mf1IvN4zeep4http10connectionERKNS_6system10error_codeEEENSL_5list2INSL_5valueINS_10shared_ptrISR_EEEEPFNS_3argILi1EEEvEEEEEEEE7performERST_Rm@Base 2.0.0
 _ZN5boost4asio6detail23reactive_socket_serviceINS0_2ip3tcpENS1_13epoll_reactorILb0EEEE14send_operationINS1_17consuming_buffersINS0_12const_bufferESt6vectorISA_SaISA_EEEENS1_13write_handlerINS0_19basic_stream_socketIS4_NS0_21stream_socket_serviceIS4_EEEESD_NS1_14transfer_all_tENS_3_bi6bind_tIvNS_4_mfi3mf1IvN4zeep4http10connectionERKNS_6system10error_codeEEENSL_5list2INSL_5valueINS_10shared_ptrISR_EEEEPFNS_3argILi1EEEvEEEEEEEE8completeESV_m@Base 2.0.0
 _ZN5boost4asio6detail23reactive_socket_serviceINS0_2ip3tcpENS1_13epoll_reactorILb0EEEE14send_operationINS1_17consuming_buffersINS0_12const_bufferESt6vectorISA_SaISA_EEEENS1_13write_handlerINS0_19basic_stream_socketIS4_NS0_21stream_socket_serviceIS4_EEEESD_NS1_14transfer_all_tENS_3_bi6bind_tIvNS_4_mfi3mf1IvN4zeep4http10connectionERKNS_6system10error_codeEEENSL_5list2INSL_5valueINS_10shared_ptrISR_EEEEPFNS_3argILi1EEEvEEEEEEEEC1ERKS19_@Base 2.0.0
 _ZN5boost4asio6detail23reactive_socket_serviceINS0_2ip3tcpENS1_13epoll_reactorILb0EEEE14send_operationINS1_17consuming_buffersINS0_12const_bufferESt6vectorISA_SaISA_EEEENS1_13write_handlerINS0_19basic_stream_socketIS4_NS0_21stream_socket_serviceIS4_EEEESD_NS1_14transfer_all_tENS_3_bi6bind_tIvNS_4_mfi3mf1IvN4zeep4http10connectionERKNS_6system10error_codeEEENSL_5list2INSL_5valueINS_10shared_ptrISR_EEEEPFNS_3argILi1EEEvEEEEEEEED1Ev@Base 2.0.0
 _ZN5boost4asio6detail23reactive_socket_serviceINS0_2ip3tcpENS1_13epoll_reactorILb0EEEE16accept_operationINS0_12basic_socketIS4_NS0_21stream_socket_serviceIS4_EEEENS_3_bi6bind_tIvNS_4_mfi3mf1IvN4zeep4http21preforked_server_baseERKNS_6system10error_codeEEENSD_5list2INSD_5valueIPSJ_EEPFNS_3argILi1EEEvEEEEEE7performERSL_Rm@Base 2.0.0
 _ZN5boost4asio6detail23reactive_socket_serviceINS0_2ip3tcpENS1_13epoll_reactorILb0EEEE16accept_operationINS0_12basic_socketIS4_NS0_21stream_socket_serviceIS4_EEEENS_3_bi6bind_tIvNS_4_mfi3mf1IvN4zeep4http21preforked_server_baseERKNS_6system10error_codeEEENSD_5list2INSD_5valueIPSJ_EEPFNS_3argILi1EEEvEEEEEE8completeESN_m@Base 2.0.0
 _ZN5boost4asio6detail23reactive_socket_serviceINS0_2ip3tcpENS1_13epoll_reactorILb0EEEE16accept_operationINS0_12basic_socketIS4_NS0_21stream_socket_serviceIS4_EEEENS_3_bi6bind_tIvNS_4_mfi3mf1IvN4zeep4http21preforked_server_baseERKNS_6system10error_codeEEENSD_5list2INSD_5valueIPSJ_EEPFNS_3argILi1EEEvEEEEEED1Ev@Base 2.0.0
 _ZN5boost4asio6detail23reactive_socket_serviceINS0_2ip3tcpENS1_13epoll_reactorILb0EEEE16accept_operationINS0_12basic_socketIS4_NS0_21stream_socket_serviceIS4_EEEENS_3_bi6bind_tIvNS_4_mfi3mf1IvN4zeep4http6serverERKNS_6system10error_codeEEENSD_5list2INSD_5valueIPSJ_EEPFNS_3argILi1EEEvEEEEEE7performERSL_Rm@Base 2.0.0
 _ZN5boost4asio6detail23reactive_socket_serviceINS0_2ip3tcpENS1_13epoll_reactorILb0EEEE16accept_operationINS0_12basic_socketIS4_NS0_21stream_socket_serviceIS4_EEEENS_3_bi6bind_tIvNS_4_mfi3mf1IvN4zeep4http6serverERKNS_6system10error_codeEEENSD_5list2INSD_5valueIPSJ_EEPFNS_3argILi1EEEvEEEEEE8completeESN_m@Base 2.0.0
 _ZN5boost4asio6detail23reactive_socket_serviceINS0_2ip3tcpENS1_13epoll_reactorILb0EEEE16accept_operationINS0_12basic_socketIS4_NS0_21stream_socket_serviceIS4_EEEENS_3_bi6bind_tIvNS_4_mfi3mf1IvN4zeep4http6serverERKNS_6system10error_codeEEENSD_5list2INSD_5valueIPSJ_EEPFNS_3argILi1EEEvEEEEEED1Ev@Base 2.0.0
 _ZN5boost4asio6detail23reactive_socket_serviceINS0_2ip3tcpENS1_13epoll_reactorILb0EEEE16shutdown_serviceEv@Base 2.0.0
 _ZN5boost4asio6detail23reactive_socket_serviceINS0_2ip3tcpENS1_13epoll_reactorILb0EEEE17receive_operationINS0_17mutable_buffers_1ENS_3_bi6bind_tIvNS_4_mfi3mf2IvN4zeep4http10connectionERKNS_6system10error_codeEmEENSA_5list3INSA_5valueINS_10shared_ptrISG_EEEEPFNS_3argILi1EEEvEPFNSR_ILi2EEEvEEEEEE7performERSI_Rm@Base 2.0.0
 _ZN5boost4asio6detail23reactive_socket_serviceINS0_2ip3tcpENS1_13epoll_reactorILb0EEEE17receive_operationINS0_17mutable_buffers_1ENS_3_bi6bind_tIvNS_4_mfi3mf2IvN4zeep4http10connectionERKNS_6system10error_codeEmEENSA_5list3INSA_5valueINS_10shared_ptrISG_EEEEPFNS_3argILi1EEEvEPFNSR_ILi2EEEvEEEEEE8completeESK_m@Base 2.0.0
 _ZN5boost4asio6detail23reactive_socket_serviceINS0_2ip3tcpENS1_13epoll_reactorILb0EEEE17receive_operationINS0_17mutable_buffers_1ENS_3_bi6bind_tIvNS_4_mfi3mf2IvN4zeep4http10connectionERKNS_6system10error_codeEmEENSA_5list3INSA_5valueINS_10shared_ptrISG_EEEEPFNS_3argILi1EEEvEPFNSR_ILi2EEEvEEEEEEC1ERKS10_@Base 2.0.0
 _ZN5boost4asio6detail23reactive_socket_serviceINS0_2ip3tcpENS1_13epoll_reactorILb0EEEE17receive_operationINS0_17mutable_buffers_1ENS_3_bi6bind_tIvNS_4_mfi3mf2IvN4zeep4http10connectionERKNS_6system10error_codeEmEENSA_5list3INSA_5valueINS_10shared_ptrISG_EEEEPFNS_3argILi1EEEvEPFNSR_ILi2EEEvEEEEEED1Ev@Base 2.0.0
 _ZN5boost4asio6detail23reactive_socket_serviceINS0_2ip3tcpENS1_13epoll_reactorILb0EEEE7destroyERNS7_19implementation_typeE@Base 2.0.0
 _ZN5boost4asio6detail23reactive_socket_serviceINS0_2ip3tcpENS1_13epoll_reactorILb0EEEED0Ev@Base 2.0.0
 _ZN5boost4asio6detail23reactive_socket_serviceINS0_2ip3tcpENS1_13epoll_reactorILb0EEEED1Ev@Base 2.0.0
 _ZN5boost4asio6detail26eventfd_select_interrupterD1Ev@Base 2.0.0
 _ZN5boost4asio6detail7tss_ptrINS1_10call_stackINS1_15task_io_serviceINS1_13epoll_reactorILb0EEEEEE7contextEED1Ev@Base 2.0.0
 _ZN5boost4asio6detail8hash_mapIiPNS1_16reactor_op_queueIiE7op_baseEE13values_insertESt14_List_iteratorISt4pairIiS6_EERKSA_@Base 2.0.0
 _ZN5boost4asio6detail8hash_mapIiPNS1_16reactor_op_queueIiE7op_baseEE5eraseESt14_List_iteratorISt4pairIiS6_EE@Base 2.0.0
 _ZN5boost4asio6detail8hash_mapIiPNS1_16reactor_op_queueIiE7op_baseEE6insertERKSt4pairIiS6_E@Base 2.0.0
 _ZN5boost4asio6detail8hash_mapIiPNS1_16reactor_op_queueIiE7op_baseEE6rehashEm@Base 2.0.0
 _ZN5boost5logic13indeterminateENS0_7triboolENS0_6detail15indeterminate_tE@Base 2.0.0
 _ZN5boost5logic7tribool5dummy7nonnullEv@Base 2.0.0
 _ZN5boost5mutex6unlockEv@Base 2.0.0
 _ZN5boost5mutexC1Ev@Base 2.0.0
 _ZN5boost5mutexD1Ev@Base 2.0.0
 _ZN5boost6detail11thread_dataINS_3_bi6bind_tImNS_4_mfi3mf0ImNS_4asio10io_serviceEEENS2_5list1INS2_5valueIPS7_EEEEEEE3runEv@Base 2.0.0
 _ZN5boost6detail11thread_dataINS_3_bi6bind_tImNS_4_mfi3mf0ImNS_4asio10io_serviceEEENS2_5list1INS2_5valueIPS7_EEEEEEED0Ev@Base 2.0.0
 _ZN5boost6detail11thread_dataINS_3_bi6bind_tImNS_4_mfi3mf0ImNS_4asio10io_serviceEEENS2_5list1INS2_5valueIPS7_EEEEEEED1Ev@Base 2.0.0
 _ZN5boost6detail11thread_dataINS_3_bi6bind_tIvNS_4_mfi3mf0IvN4zeep4http6serverEEENS2_5list1INS2_5valueIPS8_EEEEEEE3runEv@Base 2.0.0
 _ZN5boost6detail11thread_dataINS_3_bi6bind_tIvNS_4_mfi3mf0IvN4zeep4http6serverEEENS2_5list1INS2_5valueIPS8_EEEEEEED0Ev@Base 2.0.0
 _ZN5boost6detail11thread_dataINS_3_bi6bind_tIvNS_4_mfi3mf0IvN4zeep4http6serverEEENS2_5list1INS2_5valueIPS8_EEEEEEED1Ev@Base 2.0.0
 _ZN5boost6detail12shared_countD1Ev@Base 2.0.0
 _ZN5boost6detail15sp_counted_base7destroyEv@Base 2.0.0
 _ZN5boost6detail15sp_counted_baseD0Ev@Base 2.0.0
 _ZN5boost6detail15sp_counted_baseD1Ev@Base 2.0.0
 _ZN5boost6detail16thread_data_baseC2Ev@Base 2.0.0
 _ZN5boost6detail17sp_counted_impl_pIN4zeep3xml15path_expressionEE11get_deleterERKSt9type_info@Base 2.0.0
 _ZN5boost6detail17sp_counted_impl_pIN4zeep3xml15path_expressionEE7disposeEv@Base 2.0.0
 _ZN5boost6detail17sp_counted_impl_pIN4zeep3xml15path_expressionEED0Ev@Base 2.0.0
 _ZN5boost6detail17sp_counted_impl_pIN4zeep3xml15path_expressionEED1Ev@Base 2.0.0
 _ZN5boost6detail17sp_counted_impl_pIN4zeep3xml15root_expressionEE11get_deleterERKSt9type_info@Base 2.0.0
 _ZN5boost6detail17sp_counted_impl_pIN4zeep3xml15root_expressionEE7disposeEv@Base 2.0.0
 _ZN5boost6detail17sp_counted_impl_pIN4zeep3xml15root_expressionEED0Ev@Base 2.0.0
 _ZN5boost6detail17sp_counted_impl_pIN4zeep3xml15root_expressionEED1Ev@Base 2.0.0
 _ZN5boost6detail17sp_counted_impl_pIN4zeep3xml16union_expressionEE11get_deleterERKSt9type_info@Base 2.0.0
 _ZN5boost6detail17sp_counted_impl_pIN4zeep3xml16union_expressionEE7disposeEv@Base 2.0.0
 _ZN5boost6detail17sp_counted_impl_pIN4zeep3xml16union_expressionEED0Ev@Base 2.0.0
 _ZN5boost6detail17sp_counted_impl_pIN4zeep3xml16union_expressionEED1Ev@Base 2.0.0
 _ZN5boost6detail17sp_counted_impl_pIN4zeep3xml17negate_expressionEE11get_deleterERKSt9type_info@Base 2.0.0
 _ZN5boost6detail17sp_counted_impl_pIN4zeep3xml17negate_expressionEE7disposeEv@Base 2.0.0
 _ZN5boost6detail17sp_counted_impl_pIN4zeep3xml17negate_expressionEED0Ev@Base 2.0.0
 _ZN5boost6detail17sp_counted_impl_pIN4zeep3xml17negate_expressionEED1Ev@Base 2.0.0
 _ZN5boost6detail17sp_counted_impl_pIN4zeep3xml17number_expressionEE11get_deleterERKSt9type_info@Base 2.0.0
 _ZN5boost6detail17sp_counted_impl_pIN4zeep3xml17number_expressionEE7disposeEv@Base 2.0.0
 _ZN5boost6detail17sp_counted_impl_pIN4zeep3xml17number_expressionEED0Ev@Base 2.0.0
 _ZN5boost6detail17sp_counted_impl_pIN4zeep3xml17number_expressionEED1Ev@Base 2.0.0
 _ZN5boost6detail17sp_counted_impl_pIN4zeep3xml18literal_expressionEE11get_deleterERKSt9type_info@Base 2.0.0
 _ZN5boost6detail17sp_counted_impl_pIN4zeep3xml18literal_expressionEE7disposeEv@Base 2.0.0
 _ZN5boost6detail17sp_counted_impl_pIN4zeep3xml18literal_expressionEED0Ev@Base 2.0.0
 _ZN5boost6detail17sp_counted_impl_pIN4zeep3xml18literal_expressionEED1Ev@Base 2.0.0
 _ZN5boost6detail17sp_counted_impl_pIN4zeep3xml19operator_expressionILNS3_5TokenE269EEEE11get_deleterERKSt9type_info@Base 2.0.0
 _ZN5boost6detail17sp_counted_impl_pIN4zeep3xml19operator_expressionILNS3_5TokenE269EEEE7disposeEv@Base 2.0.0
 _ZN5boost6detail17sp_counted_impl_pIN4zeep3xml19operator_expressionILNS3_5TokenE269EEEED0Ev@Base 2.0.0
 _ZN5boost6detail17sp_counted_impl_pIN4zeep3xml19operator_expressionILNS3_5TokenE269EEEED1Ev@Base 2.0.0
 _ZN5boost6detail17sp_counted_impl_pIN4zeep3xml19operator_expressionILNS3_5TokenE270EEEE11get_deleterERKSt9type_info@Base 2.0.0
 _ZN5boost6detail17sp_counted_impl_pIN4zeep3xml19operator_expressionILNS3_5TokenE270EEEE7disposeEv@Base 2.0.0
 _ZN5boost6detail17sp_counted_impl_pIN4zeep3xml19operator_expressionILNS3_5TokenE270EEEED0Ev@Base 2.0.0
 _ZN5boost6detail17sp_counted_impl_pIN4zeep3xml19operator_expressionILNS3_5TokenE270EEEED1Ev@Base 2.0.0
 _ZN5boost6detail17sp_counted_impl_pIN4zeep3xml19operator_expressionILNS3_5TokenE271EEEE11get_deleterERKSt9type_info@Base 2.0.0
 _ZN5boost6detail17sp_counted_impl_pIN4zeep3xml19operator_expressionILNS3_5TokenE271EEEE7disposeEv@Base 2.0.0
 _ZN5boost6detail17sp_counted_impl_pIN4zeep3xml19operator_expressionILNS3_5TokenE271EEEED0Ev@Base 2.0.0
 _ZN5boost6detail17sp_counted_impl_pIN4zeep3xml19operator_expressionILNS3_5TokenE271EEEED1Ev@Base 2.0.0
 _ZN5boost6detail17sp_counted_impl_pIN4zeep3xml19operator_expressionILNS3_5TokenE272EEEE11get_deleterERKSt9type_info@Base 2.0.0
 _ZN5boost6detail17sp_counted_impl_pIN4zeep3xml19operator_expressionILNS3_5TokenE272EEEE7disposeEv@Base 2.0.0
 _ZN5boost6detail17sp_counted_impl_pIN4zeep3xml19operator_expressionILNS3_5TokenE272EEEED0Ev@Base 2.0.0
 _ZN5boost6detail17sp_counted_impl_pIN4zeep3xml19operator_expressionILNS3_5TokenE272EEEED1Ev@Base 2.0.0
 _ZN5boost6detail17sp_counted_impl_pIN4zeep3xml19operator_expressionILNS3_5TokenE273EEEE11get_deleterERKSt9type_info@Base 2.0.0
 _ZN5boost6detail17sp_counted_impl_pIN4zeep3xml19operator_expressionILNS3_5TokenE273EEEE7disposeEv@Base 2.0.0
 _ZN5boost6detail17sp_counted_impl_pIN4zeep3xml19operator_expressionILNS3_5TokenE273EEEED0Ev@Base 2.0.0
 _ZN5boost6detail17sp_counted_impl_pIN4zeep3xml19operator_expressionILNS3_5TokenE273EEEED1Ev@Base 2.0.0
 _ZN5boost6detail17sp_counted_impl_pIN4zeep3xml19operator_expressionILNS3_5TokenE274EEEE11get_deleterERKSt9type_info@Base 2.0.0
 _ZN5boost6detail17sp_counted_impl_pIN4zeep3xml19operator_expressionILNS3_5TokenE274EEEE7disposeEv@Base 2.0.0
 _ZN5boost6detail17sp_counted_impl_pIN4zeep3xml19operator_expressionILNS3_5TokenE274EEEED0Ev@Base 2.0.0
 _ZN5boost6detail17sp_counted_impl_pIN4zeep3xml19operator_expressionILNS3_5TokenE274EEEED1Ev@Base 2.0.0
 _ZN5boost6detail17sp_counted_impl_pIN4zeep3xml19operator_expressionILNS3_5TokenE275EEEE11get_deleterERKSt9type_info@Base 2.0.0
 _ZN5boost6detail17sp_counted_impl_pIN4zeep3xml19operator_expressionILNS3_5TokenE275EEEE7disposeEv@Base 2.0.0
 _ZN5boost6detail17sp_counted_impl_pIN4zeep3xml19operator_expressionILNS3_5TokenE275EEEED0Ev@Base 2.0.0
 _ZN5boost6detail17sp_counted_impl_pIN4zeep3xml19operator_expressionILNS3_5TokenE275EEEED1Ev@Base 2.0.0
 _ZN5boost6detail17sp_counted_impl_pIN4zeep3xml19operator_expressionILNS3_5TokenE276EEEE11get_deleterERKSt9type_info@Base 2.0.0
 _ZN5boost6detail17sp_counted_impl_pIN4zeep3xml19operator_expressionILNS3_5TokenE276EEEE7disposeEv@Base 2.0.0
 _ZN5boost6detail17sp_counted_impl_pIN4zeep3xml19operator_expressionILNS3_5TokenE276EEEED0Ev@Base 2.0.0
 _ZN5boost6detail17sp_counted_impl_pIN4zeep3xml19operator_expressionILNS3_5TokenE276EEEED1Ev@Base 2.0.0
 _ZN5boost6detail17sp_counted_impl_pIN4zeep3xml19operator_expressionILNS3_5TokenE277EEEE11get_deleterERKSt9type_info@Base 2.0.0
 _ZN5boost6detail17sp_counted_impl_pIN4zeep3xml19operator_expressionILNS3_5TokenE277EEEE7disposeEv@Base 2.0.0
 _ZN5boost6detail17sp_counted_impl_pIN4zeep3xml19operator_expressionILNS3_5TokenE277EEEED0Ev@Base 2.0.0
 _ZN5boost6detail17sp_counted_impl_pIN4zeep3xml19operator_expressionILNS3_5TokenE277EEEED1Ev@Base 2.0.0
 _ZN5boost6detail17sp_counted_impl_pIN4zeep3xml19operator_expressionILNS3_5TokenE278EEEE11get_deleterERKSt9type_info@Base 2.0.0
 _ZN5boost6detail17sp_counted_impl_pIN4zeep3xml19operator_expressionILNS3_5TokenE278EEEE7disposeEv@Base 2.0.0
 _ZN5boost6detail17sp_counted_impl_pIN4zeep3xml19operator_expressionILNS3_5TokenE278EEEED0Ev@Base 2.0.0
 _ZN5boost6detail17sp_counted_impl_pIN4zeep3xml19operator_expressionILNS3_5TokenE278EEEED1Ev@Base 2.0.0
 _ZN5boost6detail17sp_counted_impl_pIN4zeep3xml19operator_expressionILNS3_5TokenE279EEEE11get_deleterERKSt9type_info@Base 2.0.0
 _ZN5boost6detail17sp_counted_impl_pIN4zeep3xml19operator_expressionILNS3_5TokenE279EEEE7disposeEv@Base 2.0.0
 _ZN5boost6detail17sp_counted_impl_pIN4zeep3xml19operator_expressionILNS3_5TokenE279EEEED0Ev@Base 2.0.0
 _ZN5boost6detail17sp_counted_impl_pIN4zeep3xml19operator_expressionILNS3_5TokenE279EEEED1Ev@Base 2.0.0
 _ZN5boost6detail17sp_counted_impl_pIN4zeep3xml19operator_expressionILNS3_5TokenE280EEEE11get_deleterERKSt9type_info@Base 2.0.0
 _ZN5boost6detail17sp_counted_impl_pIN4zeep3xml19operator_expressionILNS3_5TokenE280EEEE7disposeEv@Base 2.0.0
 _ZN5boost6detail17sp_counted_impl_pIN4zeep3xml19operator_expressionILNS3_5TokenE280EEEED0Ev@Base 2.0.0
 _ZN5boost6detail17sp_counted_impl_pIN4zeep3xml19operator_expressionILNS3_5TokenE280EEEED1Ev@Base 2.0.0
 _ZN5boost6detail17sp_counted_impl_pIN4zeep3xml19variable_expressionEE11get_deleterERKSt9type_info@Base 2.0.0
 _ZN5boost6detail17sp_counted_impl_pIN4zeep3xml19variable_expressionEE7disposeEv@Base 2.0.0
 _ZN5boost6detail17sp_counted_impl_pIN4zeep3xml19variable_expressionEED0Ev@Base 2.0.0
 _ZN5boost6detail17sp_counted_impl_pIN4zeep3xml19variable_expressionEED1Ev@Base 2.0.0
 _ZN5boost6detail17sp_counted_impl_pIN4zeep3xml20node_type_expressionINS3_22processing_instructionEEEE11get_deleterERKSt9type_info@Base 2.0.0
 _ZN5boost6detail17sp_counted_impl_pIN4zeep3xml20node_type_expressionINS3_22processing_instructionEEEE7disposeEv@Base 2.0.0
 _ZN5boost6detail17sp_counted_impl_pIN4zeep3xml20node_type_expressionINS3_22processing_instructionEEEED0Ev@Base 2.0.0
 _ZN5boost6detail17sp_counted_impl_pIN4zeep3xml20node_type_expressionINS3_22processing_instructionEEEED1Ev@Base 2.0.0
 _ZN5boost6detail17sp_counted_impl_pIN4zeep3xml20node_type_expressionINS3_4nodeEEEE11get_deleterERKSt9type_info@Base 2.0.0
 _ZN5boost6detail17sp_counted_impl_pIN4zeep3xml20node_type_expressionINS3_4nodeEEEE7disposeEv@Base 2.0.0
 _ZN5boost6detail17sp_counted_impl_pIN4zeep3xml20node_type_expressionINS3_4nodeEEEED0Ev@Base 2.0.0
 _ZN5boost6detail17sp_counted_impl_pIN4zeep3xml20node_type_expressionINS3_4nodeEEEED1Ev@Base 2.0.0
 _ZN5boost6detail17sp_counted_impl_pIN4zeep3xml20node_type_expressionINS3_4textEEEE11get_deleterERKSt9type_info@Base 2.0.0
 _ZN5boost6detail17sp_counted_impl_pIN4zeep3xml20node_type_expressionINS3_4textEEEE7disposeEv@Base 2.0.0
 _ZN5boost6detail17sp_counted_impl_pIN4zeep3xml20node_type_expressionINS3_4textEEEED0Ev@Base 2.0.0
 _ZN5boost6detail17sp_counted_impl_pIN4zeep3xml20node_type_expressionINS3_4textEEEED1Ev@Base 2.0.0
 _ZN5boost6detail17sp_counted_impl_pIN4zeep3xml20node_type_expressionINS3_7commentEEEE11get_deleterERKSt9type_info@Base 2.0.0
 _ZN5boost6detail17sp_counted_impl_pIN4zeep3xml20node_type_expressionINS3_7commentEEEE7disposeEv@Base 2.0.0
 _ZN5boost6detail17sp_counted_impl_pIN4zeep3xml20node_type_expressionINS3_7commentEEEED0Ev@Base 2.0.0
 _ZN5boost6detail17sp_counted_impl_pIN4zeep3xml20node_type_expressionINS3_7commentEEEED1Ev@Base 2.0.0
 _ZN5boost6detail17sp_counted_impl_pIN4zeep3xml20predicate_expressionEE11get_deleterERKSt9type_info@Base 2.0.0
 _ZN5boost6detail17sp_counted_impl_pIN4zeep3xml20predicate_expressionEE7disposeEv@Base 2.0.0
 _ZN5boost6detail17sp_counted_impl_pIN4zeep3xml20predicate_expressionEED0Ev@Base 2.0.0
 _ZN5boost6detail17sp_counted_impl_pIN4zeep3xml20predicate_expressionEED1Ev@Base 2.0.0
 _ZN5boost6detail17sp_counted_impl_pIN4zeep3xml24core_function_expressionILNS3_12CoreFunctionE0EEEE11get_deleterERKSt9type_info@Base 2.0.0
 _ZN5boost6detail17sp_counted_impl_pIN4zeep3xml24core_function_expressionILNS3_12CoreFunctionE0EEEE7disposeEv@Base 2.0.0
 _ZN5boost6detail17sp_counted_impl_pIN4zeep3xml24core_function_expressionILNS3_12CoreFunctionE0EEEED0Ev@Base 2.0.0
 _ZN5boost6detail17sp_counted_impl_pIN4zeep3xml24core_function_expressionILNS3_12CoreFunctionE0EEEED1Ev@Base 2.0.0
 _ZN5boost6detail17sp_counted_impl_pIN4zeep3xml24core_function_expressionILNS3_12CoreFunctionE10EEEE11get_deleterERKSt9type_info@Base 2.0.0
 _ZN5boost6detail17sp_counted_impl_pIN4zeep3xml24core_function_expressionILNS3_12CoreFunctionE10EEEE7disposeEv@Base 2.0.0
 _ZN5boost6detail17sp_counted_impl_pIN4zeep3xml24core_function_expressionILNS3_12CoreFunctionE10EEEED0Ev@Base 2.0.0
 _ZN5boost6detail17sp_counted_impl_pIN4zeep3xml24core_function_expressionILNS3_12CoreFunctionE10EEEED1Ev@Base 2.0.0
 _ZN5boost6detail17sp_counted_impl_pIN4zeep3xml24core_function_expressionILNS3_12CoreFunctionE11EEEE11get_deleterERKSt9type_info@Base 2.0.0
 _ZN5boost6detail17sp_counted_impl_pIN4zeep3xml24core_function_expressionILNS3_12CoreFunctionE11EEEE7disposeEv@Base 2.0.0
 _ZN5boost6detail17sp_counted_impl_pIN4zeep3xml24core_function_expressionILNS3_12CoreFunctionE11EEEED0Ev@Base 2.0.0
 _ZN5boost6detail17sp_counted_impl_pIN4zeep3xml24core_function_expressionILNS3_12CoreFunctionE11EEEED1Ev@Base 2.0.0
 _ZN5boost6detail17sp_counted_impl_pIN4zeep3xml24core_function_expressionILNS3_12CoreFunctionE12EEEE11get_deleterERKSt9type_info@Base 2.0.0
 _ZN5boost6detail17sp_counted_impl_pIN4zeep3xml24core_function_expressionILNS3_12CoreFunctionE12EEEE7disposeEv@Base 2.0.0
 _ZN5boost6detail17sp_counted_impl_pIN4zeep3xml24core_function_expressionILNS3_12CoreFunctionE12EEEED0Ev@Base 2.0.0
 _ZN5boost6detail17sp_counted_impl_pIN4zeep3xml24core_function_expressionILNS3_12CoreFunctionE12EEEED1Ev@Base 2.0.0
 _ZN5boost6detail17sp_counted_impl_pIN4zeep3xml24core_function_expressionILNS3_12CoreFunctionE14EEEE11get_deleterERKSt9type_info@Base 2.0.0
 _ZN5boost6detail17sp_counted_impl_pIN4zeep3xml24core_function_expressionILNS3_12CoreFunctionE14EEEE7disposeEv@Base 2.0.0
 _ZN5boost6detail17sp_counted_impl_pIN4zeep3xml24core_function_expressionILNS3_12CoreFunctionE14EEEED0Ev@Base 2.0.0
 _ZN5boost6detail17sp_counted_impl_pIN4zeep3xml24core_function_expressionILNS3_12CoreFunctionE14EEEED1Ev@Base 2.0.0
 _ZN5boost6detail17sp_counted_impl_pIN4zeep3xml24core_function_expressionILNS3_12CoreFunctionE15EEEE11get_deleterERKSt9type_info@Base 2.0.0
 _ZN5boost6detail17sp_counted_impl_pIN4zeep3xml24core_function_expressionILNS3_12CoreFunctionE15EEEE7disposeEv@Base 2.0.0
 _ZN5boost6detail17sp_counted_impl_pIN4zeep3xml24core_function_expressionILNS3_12CoreFunctionE15EEEED0Ev@Base 2.0.0
 _ZN5boost6detail17sp_counted_impl_pIN4zeep3xml24core_function_expressionILNS3_12CoreFunctionE15EEEED1Ev@Base 2.0.0
 _ZN5boost6detail17sp_counted_impl_pIN4zeep3xml24core_function_expressionILNS3_12CoreFunctionE16EEEE11get_deleterERKSt9type_info@Base 2.0.0
 _ZN5boost6detail17sp_counted_impl_pIN4zeep3xml24core_function_expressionILNS3_12CoreFunctionE16EEEE7disposeEv@Base 2.0.0
 _ZN5boost6detail17sp_counted_impl_pIN4zeep3xml24core_function_expressionILNS3_12CoreFunctionE16EEEED0Ev@Base 2.0.0
 _ZN5boost6detail17sp_counted_impl_pIN4zeep3xml24core_function_expressionILNS3_12CoreFunctionE16EEEED1Ev@Base 2.0.0
 _ZN5boost6detail17sp_counted_impl_pIN4zeep3xml24core_function_expressionILNS3_12CoreFunctionE17EEEE11get_deleterERKSt9type_info@Base 2.0.0
 _ZN5boost6detail17sp_counted_impl_pIN4zeep3xml24core_function_expressionILNS3_12CoreFunctionE17EEEE7disposeEv@Base 2.0.0
 _ZN5boost6detail17sp_counted_impl_pIN4zeep3xml24core_function_expressionILNS3_12CoreFunctionE17EEEED0Ev@Base 2.0.0
 _ZN5boost6detail17sp_counted_impl_pIN4zeep3xml24core_function_expressionILNS3_12CoreFunctionE17EEEED1Ev@Base 2.0.0
 _ZN5boost6detail17sp_counted_impl_pIN4zeep3xml24core_function_expressionILNS3_12CoreFunctionE18EEEE11get_deleterERKSt9type_info@Base 2.0.0
 _ZN5boost6detail17sp_counted_impl_pIN4zeep3xml24core_function_expressionILNS3_12CoreFunctionE18EEEE7disposeEv@Base 2.0.0
 _ZN5boost6detail17sp_counted_impl_pIN4zeep3xml24core_function_expressionILNS3_12CoreFunctionE18EEEED0Ev@Base 2.0.0
 _ZN5boost6detail17sp_counted_impl_pIN4zeep3xml24core_function_expressionILNS3_12CoreFunctionE18EEEED1Ev@Base 2.0.0
 _ZN5boost6detail17sp_counted_impl_pIN4zeep3xml24core_function_expressionILNS3_12CoreFunctionE19EEEE11get_deleterERKSt9type_info@Base 2.0.0
 _ZN5boost6detail17sp_counted_impl_pIN4zeep3xml24core_function_expressionILNS3_12CoreFunctionE19EEEE7disposeEv@Base 2.0.0
 _ZN5boost6detail17sp_counted_impl_pIN4zeep3xml24core_function_expressionILNS3_12CoreFunctionE19EEEED0Ev@Base 2.0.0
 _ZN5boost6detail17sp_counted_impl_pIN4zeep3xml24core_function_expressionILNS3_12CoreFunctionE19EEEED1Ev@Base 2.0.0
 _ZN5boost6detail17sp_counted_impl_pIN4zeep3xml24core_function_expressionILNS3_12CoreFunctionE1EEEE11get_deleterERKSt9type_info@Base 2.0.0
 _ZN5boost6detail17sp_counted_impl_pIN4zeep3xml24core_function_expressionILNS3_12CoreFunctionE1EEEE7disposeEv@Base 2.0.0
 _ZN5boost6detail17sp_counted_impl_pIN4zeep3xml24core_function_expressionILNS3_12CoreFunctionE1EEEED0Ev@Base 2.0.0
 _ZN5boost6detail17sp_counted_impl_pIN4zeep3xml24core_function_expressionILNS3_12CoreFunctionE1EEEED1Ev@Base 2.0.0
 _ZN5boost6detail17sp_counted_impl_pIN4zeep3xml24core_function_expressionILNS3_12CoreFunctionE20EEEE11get_deleterERKSt9type_info@Base 2.0.0
 _ZN5boost6detail17sp_counted_impl_pIN4zeep3xml24core_function_expressionILNS3_12CoreFunctionE20EEEE7disposeEv@Base 2.0.0
 _ZN5boost6detail17sp_counted_impl_pIN4zeep3xml24core_function_expressionILNS3_12CoreFunctionE20EEEED0Ev@Base 2.0.0
 _ZN5boost6detail17sp_counted_impl_pIN4zeep3xml24core_function_expressionILNS3_12CoreFunctionE20EEEED1Ev@Base 2.0.0
 _ZN5boost6detail17sp_counted_impl_pIN4zeep3xml24core_function_expressionILNS3_12CoreFunctionE21EEEE11get_deleterERKSt9type_info@Base 2.0.0
 _ZN5boost6detail17sp_counted_impl_pIN4zeep3xml24core_function_expressionILNS3_12CoreFunctionE21EEEE7disposeEv@Base 2.0.0
 _ZN5boost6detail17sp_counted_impl_pIN4zeep3xml24core_function_expressionILNS3_12CoreFunctionE21EEEED0Ev@Base 2.0.0
 _ZN5boost6detail17sp_counted_impl_pIN4zeep3xml24core_function_expressionILNS3_12CoreFunctionE21EEEED1Ev@Base 2.0.0
 _ZN5boost6detail17sp_counted_impl_pIN4zeep3xml24core_function_expressionILNS3_12CoreFunctionE22EEEE11get_deleterERKSt9type_info@Base 2.0.0
 _ZN5boost6detail17sp_counted_impl_pIN4zeep3xml24core_function_expressionILNS3_12CoreFunctionE22EEEE7disposeEv@Base 2.0.0
 _ZN5boost6detail17sp_counted_impl_pIN4zeep3xml24core_function_expressionILNS3_12CoreFunctionE22EEEED0Ev@Base 2.0.0
 _ZN5boost6detail17sp_counted_impl_pIN4zeep3xml24core_function_expressionILNS3_12CoreFunctionE22EEEED1Ev@Base 2.0.0
 _ZN5boost6detail17sp_counted_impl_pIN4zeep3xml24core_function_expressionILNS3_12CoreFunctionE23EEEE11get_deleterERKSt9type_info@Base 2.0.0
 _ZN5boost6detail17sp_counted_impl_pIN4zeep3xml24core_function_expressionILNS3_12CoreFunctionE23EEEE7disposeEv@Base 2.0.0
 _ZN5boost6detail17sp_counted_impl_pIN4zeep3xml24core_function_expressionILNS3_12CoreFunctionE23EEEED0Ev@Base 2.0.0
 _ZN5boost6detail17sp_counted_impl_pIN4zeep3xml24core_function_expressionILNS3_12CoreFunctionE23EEEED1Ev@Base 2.0.0
 _ZN5boost6detail17sp_counted_impl_pIN4zeep3xml24core_function_expressionILNS3_12CoreFunctionE24EEEE11get_deleterERKSt9type_info@Base 2.0.0
 _ZN5boost6detail17sp_counted_impl_pIN4zeep3xml24core_function_expressionILNS3_12CoreFunctionE24EEEE7disposeEv@Base 2.0.0
 _ZN5boost6detail17sp_counted_impl_pIN4zeep3xml24core_function_expressionILNS3_12CoreFunctionE24EEEED0Ev@Base 2.0.0
 _ZN5boost6detail17sp_counted_impl_pIN4zeep3xml24core_function_expressionILNS3_12CoreFunctionE24EEEED1Ev@Base 2.0.0
 _ZN5boost6detail17sp_counted_impl_pIN4zeep3xml24core_function_expressionILNS3_12CoreFunctionE25EEEE11get_deleterERKSt9type_info@Base 2.0.0
 _ZN5boost6detail17sp_counted_impl_pIN4zeep3xml24core_function_expressionILNS3_12CoreFunctionE25EEEE7disposeEv@Base 2.0.0
 _ZN5boost6detail17sp_counted_impl_pIN4zeep3xml24core_function_expressionILNS3_12CoreFunctionE25EEEED0Ev@Base 2.0.0
 _ZN5boost6detail17sp_counted_impl_pIN4zeep3xml24core_function_expressionILNS3_12CoreFunctionE25EEEED1Ev@Base 2.0.0
 _ZN5boost6detail17sp_counted_impl_pIN4zeep3xml24core_function_expressionILNS3_12CoreFunctionE26EEEE11get_deleterERKSt9type_info@Base 2.0.0
 _ZN5boost6detail17sp_counted_impl_pIN4zeep3xml24core_function_expressionILNS3_12CoreFunctionE26EEEE7disposeEv@Base 2.0.0
 _ZN5boost6detail17sp_counted_impl_pIN4zeep3xml24core_function_expressionILNS3_12CoreFunctionE26EEEED0Ev@Base 2.0.0
 _ZN5boost6detail17sp_counted_impl_pIN4zeep3xml24core_function_expressionILNS3_12CoreFunctionE26EEEED1Ev@Base 2.0.0
 _ZN5boost6detail17sp_counted_impl_pIN4zeep3xml24core_function_expressionILNS3_12CoreFunctionE27EEEE11get_deleterERKSt9type_info@Base 2.0.0
 _ZN5boost6detail17sp_counted_impl_pIN4zeep3xml24core_function_expressionILNS3_12CoreFunctionE27EEEE7disposeEv@Base 2.0.0
 _ZN5boost6detail17sp_counted_impl_pIN4zeep3xml24core_function_expressionILNS3_12CoreFunctionE27EEEED0Ev@Base 2.0.0
 _ZN5boost6detail17sp_counted_impl_pIN4zeep3xml24core_function_expressionILNS3_12CoreFunctionE27EEEED1Ev@Base 2.0.0
 _ZN5boost6detail17sp_counted_impl_pIN4zeep3xml24core_function_expressionILNS3_12CoreFunctionE2EEEE11get_deleterERKSt9type_info@Base 2.0.0
 _ZN5boost6detail17sp_counted_impl_pIN4zeep3xml24core_function_expressionILNS3_12CoreFunctionE2EEEE7disposeEv@Base 2.0.0
 _ZN5boost6detail17sp_counted_impl_pIN4zeep3xml24core_function_expressionILNS3_12CoreFunctionE2EEEED0Ev@Base 2.0.0
 _ZN5boost6detail17sp_counted_impl_pIN4zeep3xml24core_function_expressionILNS3_12CoreFunctionE2EEEED1Ev@Base 2.0.0
 _ZN5boost6detail17sp_counted_impl_pIN4zeep3xml24core_function_expressionILNS3_12CoreFunctionE3EEEE11get_deleterERKSt9type_info@Base 2.0.0
 _ZN5boost6detail17sp_counted_impl_pIN4zeep3xml24core_function_expressionILNS3_12CoreFunctionE3EEEE7disposeEv@Base 2.0.0
 _ZN5boost6detail17sp_counted_impl_pIN4zeep3xml24core_function_expressionILNS3_12CoreFunctionE3EEEED0Ev@Base 2.0.0
 _ZN5boost6detail17sp_counted_impl_pIN4zeep3xml24core_function_expressionILNS3_12CoreFunctionE3EEEED1Ev@Base 2.0.0
 _ZN5boost6detail17sp_counted_impl_pIN4zeep3xml24core_function_expressionILNS3_12CoreFunctionE4EEEE11get_deleterERKSt9type_info@Base 2.0.0
 _ZN5boost6detail17sp_counted_impl_pIN4zeep3xml24core_function_expressionILNS3_12CoreFunctionE4EEEE7disposeEv@Base 2.0.0
 _ZN5boost6detail17sp_counted_impl_pIN4zeep3xml24core_function_expressionILNS3_12CoreFunctionE4EEEED0Ev@Base 2.0.0
 _ZN5boost6detail17sp_counted_impl_pIN4zeep3xml24core_function_expressionILNS3_12CoreFunctionE4EEEED1Ev@Base 2.0.0
 _ZN5boost6detail17sp_counted_impl_pIN4zeep3xml24core_function_expressionILNS3_12CoreFunctionE5EEEE11get_deleterERKSt9type_info@Base 2.0.0
 _ZN5boost6detail17sp_counted_impl_pIN4zeep3xml24core_function_expressionILNS3_12CoreFunctionE5EEEE7disposeEv@Base 2.0.0
 _ZN5boost6detail17sp_counted_impl_pIN4zeep3xml24core_function_expressionILNS3_12CoreFunctionE5EEEED0Ev@Base 2.0.0
 _ZN5boost6detail17sp_counted_impl_pIN4zeep3xml24core_function_expressionILNS3_12CoreFunctionE5EEEED1Ev@Base 2.0.0
 _ZN5boost6detail17sp_counted_impl_pIN4zeep3xml24core_function_expressionILNS3_12CoreFunctionE6EEEE11get_deleterERKSt9type_info@Base 2.0.0
 _ZN5boost6detail17sp_counted_impl_pIN4zeep3xml24core_function_expressionILNS3_12CoreFunctionE6EEEE7disposeEv@Base 2.0.0
 _ZN5boost6detail17sp_counted_impl_pIN4zeep3xml24core_function_expressionILNS3_12CoreFunctionE6EEEED0Ev@Base 2.0.0
 _ZN5boost6detail17sp_counted_impl_pIN4zeep3xml24core_function_expressionILNS3_12CoreFunctionE6EEEED1Ev@Base 2.0.0
 _ZN5boost6detail17sp_counted_impl_pIN4zeep3xml24core_function_expressionILNS3_12CoreFunctionE7EEEE11get_deleterERKSt9type_info@Base 2.0.0
 _ZN5boost6detail17sp_counted_impl_pIN4zeep3xml24core_function_expressionILNS3_12CoreFunctionE7EEEE7disposeEv@Base 2.0.0
 _ZN5boost6detail17sp_counted_impl_pIN4zeep3xml24core_function_expressionILNS3_12CoreFunctionE7EEEED0Ev@Base 2.0.0
 _ZN5boost6detail17sp_counted_impl_pIN4zeep3xml24core_function_expressionILNS3_12CoreFunctionE7EEEED1Ev@Base 2.0.0
 _ZN5boost6detail17sp_counted_impl_pIN4zeep3xml24core_function_expressionILNS3_12CoreFunctionE8EEEE11get_deleterERKSt9type_info@Base 2.0.0
 _ZN5boost6detail17sp_counted_impl_pIN4zeep3xml24core_function_expressionILNS3_12CoreFunctionE8EEEE7disposeEv@Base 2.0.0
 _ZN5boost6detail17sp_counted_impl_pIN4zeep3xml24core_function_expressionILNS3_12CoreFunctionE8EEEED0Ev@Base 2.0.0
 _ZN5boost6detail17sp_counted_impl_pIN4zeep3xml24core_function_expressionILNS3_12CoreFunctionE8EEEED1Ev@Base 2.0.0
 _ZN5boost6detail17sp_counted_impl_pIN4zeep3xml24core_function_expressionILNS3_12CoreFunctionE9EEEE11get_deleterERKSt9type_info@Base 2.0.0
 _ZN5boost6detail17sp_counted_impl_pIN4zeep3xml24core_function_expressionILNS3_12CoreFunctionE9EEEE7disposeEv@Base 2.0.0
 _ZN5boost6detail17sp_counted_impl_pIN4zeep3xml24core_function_expressionILNS3_12CoreFunctionE9EEEED0Ev@Base 2.0.0
 _ZN5boost6detail17sp_counted_impl_pIN4zeep3xml24core_function_expressionILNS3_12CoreFunctionE9EEEED1Ev@Base 2.0.0
 _ZN5boost6detail17sp_counted_impl_pIN4zeep3xml25name_test_step_expressionEE11get_deleterERKSt9type_info@Base 2.0.0
 _ZN5boost6detail17sp_counted_impl_pIN4zeep3xml25name_test_step_expressionEE7disposeEv@Base 2.0.0
 _ZN5boost6detail17sp_counted_impl_pIN4zeep3xml25name_test_step_expressionEED0Ev@Base 2.0.0
 _ZN5boost6detail17sp_counted_impl_pIN4zeep3xml25name_test_step_expressionEED1Ev@Base 2.0.0
 _ZN5boost6detail17sp_counted_impl_pIN4zeep4http10connectionEE11get_deleterERKSt9type_info@Base 2.0.0
 _ZN5boost6detail17sp_counted_impl_pIN4zeep4http10connectionEE7disposeEv@Base 2.0.0
 _ZN5boost6detail17sp_counted_impl_pIN4zeep4http10connectionEED0Ev@Base 2.0.0
 _ZN5boost6detail17sp_counted_impl_pIN4zeep4http10connectionEED1Ev@Base 2.0.0
 _ZN5boost6detail17sp_counted_impl_pINS0_11thread_dataINS_3_bi6bind_tImNS_4_mfi3mf0ImNS_4asio10io_serviceEEENS3_5list1INS3_5valueIPS8_EEEEEEEEE11get_deleterERKSt9type_info@Base 2.0.0
 _ZN5boost6detail17sp_counted_impl_pINS0_11thread_dataINS_3_bi6bind_tImNS_4_mfi3mf0ImNS_4asio10io_serviceEEENS3_5list1INS3_5valueIPS8_EEEEEEEEE7disposeEv@Base 2.0.0
 _ZN5boost6detail17sp_counted_impl_pINS0_11thread_dataINS_3_bi6bind_tImNS_4_mfi3mf0ImNS_4asio10io_serviceEEENS3_5list1INS3_5valueIPS8_EEEEEEEEED0Ev@Base 2.0.0
 _ZN5boost6detail17sp_counted_impl_pINS0_11thread_dataINS_3_bi6bind_tImNS_4_mfi3mf0ImNS_4asio10io_serviceEEENS3_5list1INS3_5valueIPS8_EEEEEEEEED1Ev@Base 2.0.0
 _ZN5boost6detail17sp_counted_impl_pINS0_11thread_dataINS_3_bi6bind_tIvNS_4_mfi3mf0IvN4zeep4http6serverEEENS3_5list1INS3_5valueIPS9_EEEEEEEEE11get_deleterERKSt9type_info@Base 2.0.0
 _ZN5boost6detail17sp_counted_impl_pINS0_11thread_dataINS_3_bi6bind_tIvNS_4_mfi3mf0IvN4zeep4http6serverEEENS3_5list1INS3_5valueIPS9_EEEEEEEEE7disposeEv@Base 2.0.0
 _ZN5boost6detail17sp_counted_impl_pINS0_11thread_dataINS_3_bi6bind_tIvNS_4_mfi3mf0IvN4zeep4http6serverEEENS3_5list1INS3_5valueIPS9_EEEEEEEEED0Ev@Base 2.0.0
 _ZN5boost6detail17sp_counted_impl_pINS0_11thread_dataINS_3_bi6bind_tIvNS_4_mfi3mf0IvN4zeep4http6serverEEENS3_5list1INS3_5valueIPS9_EEEEEEEEED1Ev@Base 2.0.0
 _ZN5boost6detail17sp_counted_impl_pINS_10filesystem22basic_filesystem_errorINS2_10basic_pathISsNS2_11path_traitsEEEE5m_impEE11get_deleterERKSt9type_info@Base 2.0.0
 _ZN5boost6detail17sp_counted_impl_pINS_10filesystem22basic_filesystem_errorINS2_10basic_pathISsNS2_11path_traitsEEEE5m_impEE7disposeEv@Base 2.0.0
 _ZN5boost6detail17sp_counted_impl_pINS_10filesystem22basic_filesystem_errorINS2_10basic_pathISsNS2_11path_traitsEEEE5m_impEED0Ev@Base 2.0.0
 _ZN5boost6detail17sp_counted_impl_pINS_10filesystem22basic_filesystem_errorINS2_10basic_pathISsNS2_11path_traitsEEEE5m_impEED1Ev@Base 2.0.0
 _ZN5boost6detail17sp_counted_impl_pINS_4asio21basic_socket_acceptorINS2_2ip3tcpENS2_23socket_acceptor_serviceIS5_EEEEE11get_deleterERKSt9type_info@Base 2.0.0
 _ZN5boost6detail17sp_counted_impl_pINS_4asio21basic_socket_acceptorINS2_2ip3tcpENS2_23socket_acceptor_serviceIS5_EEEEE7disposeEv@Base 2.0.0
 _ZN5boost6detail17sp_counted_impl_pINS_4asio21basic_socket_acceptorINS2_2ip3tcpENS2_23socket_acceptor_serviceIS5_EEEEED0Ev@Base 2.0.0
 _ZN5boost6detail17sp_counted_impl_pINS_4asio21basic_socket_acceptorINS2_2ip3tcpENS2_23socket_acceptor_serviceIS5_EEEEED1Ev@Base 2.0.0
 _ZN5boost6detail17sp_counted_impl_pISt6vectorINS_4asio2ip20basic_resolver_entryINS4_3tcpEEESaIS7_EEE11get_deleterERKSt9type_info@Base 2.0.0
 _ZN5boost6detail17sp_counted_impl_pISt6vectorINS_4asio2ip20basic_resolver_entryINS4_3tcpEEESaIS7_EEE7disposeEv@Base 2.0.0
 _ZN5boost6detail17sp_counted_impl_pISt6vectorINS_4asio2ip20basic_resolver_entryINS4_3tcpEEESaIS7_EEED0Ev@Base 2.0.0
 _ZN5boost6detail17sp_counted_impl_pISt6vectorINS_4asio2ip20basic_resolver_entryINS4_3tcpEEESaIS7_EEED1Ev@Base 2.0.0
 _ZN5boost6detail18lcast_put_unsignedISt11char_traitsIcEmcEEPT1_T0_S5_@Base 2.0.0
 _ZN5boost6detail18lcast_put_unsignedISt11char_traitsIcEtcEEPT1_T0_S5_@Base 2.0.0
 _ZN5boost6detail18sp_counted_impl_pdIPNS_19thread_specific_ptrISt19basic_ostringstreamIcSt11char_traitsIcESaIcEEE11delete_dataENS0_14do_heap_deleteIS9_EEE11get_deleterERKSt9type_info@Base 2.0.0
 _ZN5boost6detail18sp_counted_impl_pdIPNS_19thread_specific_ptrISt19basic_ostringstreamIcSt11char_traitsIcESaIcEEE11delete_dataENS0_14do_heap_deleteIS9_EEE7disposeEv@Base 2.0.0
 _ZN5boost6detail18sp_counted_impl_pdIPNS_19thread_specific_ptrISt19basic_ostringstreamIcSt11char_traitsIcESaIcEEE11delete_dataENS0_14do_heap_deleteIS9_EEED0Ev@Base 2.0.0
 _ZN5boost6detail18sp_counted_impl_pdIPNS_19thread_specific_ptrISt19basic_ostringstreamIcSt11char_traitsIcESaIcEEE11delete_dataENS0_14do_heap_deleteIS9_EEED1Ev@Base 2.0.0
 _ZN5boost6detail18sp_counted_impl_pdIPNS_2io18basic_altstringbufIcSt11char_traitsIcESaIcEEENS2_22basic_oaltstringstreamIcS5_S6_E5No_OpEE11get_deleterERKSt9type_info@Base 2.0.0
 _ZN5boost6detail18sp_counted_impl_pdIPNS_2io18basic_altstringbufIcSt11char_traitsIcESaIcEEENS2_22basic_oaltstringstreamIcS5_S6_E5No_OpEE7disposeEv@Base 2.0.0
 _ZN5boost6detail18sp_counted_impl_pdIPNS_2io18basic_altstringbufIcSt11char_traitsIcESaIcEEENS2_22basic_oaltstringstreamIcS5_S6_E5No_OpEED0Ev@Base 2.0.0
 _ZN5boost6detail18sp_counted_impl_pdIPNS_2io18basic_altstringbufIcSt11char_traitsIcESaIcEEENS2_22basic_oaltstringstreamIcS5_S6_E5No_OpEED1Ev@Base 2.0.0
 _ZN5boost6detail18sp_counted_impl_pdIPvNS_4asio6detail16resolver_serviceINS3_2ip3tcpEE12noop_deleterEE11get_deleterERKSt9type_info@Base 2.0.0
 _ZN5boost6detail18sp_counted_impl_pdIPvNS_4asio6detail16resolver_serviceINS3_2ip3tcpEE12noop_deleterEE7disposeEv@Base 2.0.0
 _ZN5boost6detail18sp_counted_impl_pdIPvNS_4asio6detail16resolver_serviceINS3_2ip3tcpEE12noop_deleterEED0Ev@Base 2.0.0
 _ZN5boost6detail18sp_counted_impl_pdIPvNS_4asio6detail16resolver_serviceINS3_2ip3tcpEE12noop_deleterEED1Ev@Base 2.0.0
 _ZN5boost6detail20interruption_checkerD1Ev@Base 2.0.0
 _ZN5boost6detail20tss_cleanup_functionD0Ev@Base 2.0.0
 _ZN5boost6detail20tss_cleanup_functionD1Ev@Base 2.0.0
 _ZN5boost6detail26lexical_stream_limited_srcIcSt15basic_streambufIcSt11char_traitsIcEES4_ED0Ev@Base 2.0.0
 _ZN5boost6detail26lexical_stream_limited_srcIcSt15basic_streambufIcSt11char_traitsIcEES4_ED1Ev@Base 2.0.0
 _ZN5boost6detail26sp_enable_shared_from_thisEz@Base 2.0.0
 _ZN5boost6detail8function15functor_managerINS_3_bi6bind_tIPSiNS_4_mfi3mf3IS5_N4zeep3xml12document_impERKSsSC_SC_EENS3_5list4INS3_5valueIPNS9_17zeep_document_impEEENS_3argILi1EEENSJ_ILi2EEENSJ_ILi3EEEEEEEE6manageERKNS1_15function_bufferERSQ_NS1_30functor_manager_operation_typeE@Base 2.0.0
 _ZN5boost6detail8function15functor_managerINS_3_bi6bind_tIbNS_4_mfi3mf1IbN4zeep3xml25name_test_step_expressionEPKNS8_4nodeEEENS3_5list2INS3_5valueIPS9_EENS_3argILi1EEEEEEEE6manageERKNS1_15function_bufferERSN_NS1_30functor_manager_operation_typeE@Base 2.0.0
 _ZN5boost6detail8function15functor_managerINS_3_bi6bind_tIbPFbPKN4zeep3xml4nodeEENS3_5list1INS_3argILi1EEEEEEEE6manageERKNS1_15function_bufferERSI_NS1_30functor_manager_operation_typeE@Base 2.0.0
 _ZN5boost6detail8function15functor_managerINS_3_bi6bind_tIvNS_4_mfi3mf1IvN4zeep3xml17zeep_document_impERKSsEENS3_5list2INS3_5valueIPS9_EENS_3argILi1EEEEEEEE6manageERKNS1_15function_bufferERSM_NS1_30functor_manager_operation_typeE@Base 2.0.0
 _ZN5boost6detail8function15functor_managerINS_3_bi6bind_tIvNS_4_mfi3mf2IvN4zeep3xml17zeep_document_impERKSsSB_EENS3_5list3INS3_5valueIPS9_EENS_3argILi1EEENSH_ILi2EEEEEEEE6manageERKNS1_15function_bufferERSN_NS1_30functor_manager_operation_typeE@Base 2.0.0
 _ZN5boost6detail8function15functor_managerINS_3_bi6bind_tIvNS_4_mfi3mf3IvN4zeep3xml17zeep_document_impERKSsSB_RKSt4listINS8_6detail4attrESaISE_EEEENS3_5list4INS3_5valueIPS9_EENS_3argILi1EEENSO_ILi2EEENSO_ILi3EEEEEEEE6manageERKNS1_15function_bufferERSV_NS1_30functor_manager_operation_typeE@Base 2.0.0
 _ZN5boost6detail8function15functor_managerINS_3_bi6bind_tIvNS_4_mfi3mf3IvN4zeep3xml17zeep_document_impERKSsSB_SB_EENS3_5list4INS3_5valueIPS9_EENS_3argILi1EEENSH_ILi2EEENSH_ILi3EEEEEEEE6manageERKNS1_15function_bufferERSO_NS1_30functor_manager_operation_typeE@Base 2.0.0
 _ZN5boost6detail8function15functor_managerINS_9algorithm6detail13token_finderFINS4_10is_any_ofFIcEEEEE6manageERKNS1_15function_bufferERSA_NS1_30functor_manager_operation_typeE@Base 2.0.0
 _ZN5boost6detail8function16has_empty_targetEz@Base 2.0.0
 _ZN5boost6detail8function21function_obj_invoker1INS_3_bi6bind_tIbNS_4_mfi3mf1IbN4zeep3xml25name_test_step_expressionEPKNS8_4nodeEEENS3_5list2INS3_5valueIPS9_EENS_3argILi1EEEEEEEbSC_E6invokeERNS1_15function_bufferESC_@Base 2.0.0
 _ZN5boost6detail8function21function_obj_invoker1INS_3_bi6bind_tIbPFbPKN4zeep3xml4nodeEENS3_5list1INS_3argILi1EEEEEEEbS9_E6invokeERNS1_15function_bufferES9_@Base 2.0.0
 _ZN5boost6detail8function21function_obj_invoker2INS_9algorithm6detail13token_finderFINS4_10is_any_ofFIcEEEENS_14iterator_rangeIN9__gnu_cxx17__normal_iteratorIPcSsEEEESD_SD_E6invokeERNS1_15function_bufferESD_SD_@Base 2.0.0
 _ZN5boost6detail8function21function_obj_invoker3INS_3_bi6bind_tIPSiNS_4_mfi3mf3IS5_N4zeep3xml12document_impERKSsSC_SC_EENS3_5list4INS3_5valueIPNS9_17zeep_document_impEEENS_3argILi1EEENSJ_ILi2EEENSJ_ILi3EEEEEEES5_SC_SC_SC_E6invokeERNS1_15function_bufferESC_SC_SC_@Base 2.0.0
 _ZN5boost6detail8function26void_function_obj_invoker1INS_3_bi6bind_tIvNS_4_mfi3mf1IvN4zeep3xml17zeep_document_impERKSsEENS3_5list2INS3_5valueIPS9_EENS_3argILi1EEEEEEEvSB_E6invokeERNS1_15function_bufferESB_@Base 2.0.0
 _ZN5boost6detail8function26void_function_obj_invoker2INS_3_bi6bind_tIvNS_4_mfi3mf2IvN4zeep3xml17zeep_document_impERKSsSB_EENS3_5list3INS3_5valueIPS9_EENS_3argILi1EEENSH_ILi2EEEEEEEvSB_SB_E6invokeERNS1_15function_bufferESB_SB_@Base 2.0.0
 _ZN5boost6detail8function26void_function_obj_invoker3INS_3_bi6bind_tIvNS_4_mfi3mf3IvN4zeep3xml17zeep_document_impERKSsSB_RKSt4listINS8_6detail4attrESaISE_EEEENS3_5list4INS3_5valueIPS9_EENS_3argILi1EEENSO_ILi2EEENSO_ILi3EEEEEEEvSB_SB_SI_E6invokeERNS1_15function_bufferESB_SB_SI_@Base 2.0.0
 _ZN5boost6detail8function26void_function_obj_invoker3INS_3_bi6bind_tIvNS_4_mfi3mf3IvN4zeep3xml17zeep_document_impERKSsSB_SB_EENS3_5list4INS3_5valueIPS9_EENS_3argILi1EEENSH_ILi2EEENSH_ILi3EEEEEEEvSB_SB_SB_E6invokeERNS1_15function_bufferESB_SB_SB_@Base 2.0.0
 _ZN5boost6system10error_code21unspecified_bool_trueEv@Base 2.0.0
 _ZN5boost6system12system_errorC1ENS0_10error_codeE@Base 2.0.0
 _ZN5boost6system12system_errorC1ENS0_10error_codeEPKc@Base 2.0.0
 _ZN5boost6system12system_errorC2ERKS1_@Base 2.0.0
 _ZN5boost6system12system_errorD0Ev@Base 2.0.0
 _ZN5boost6system12system_errorD1Ev@Base 2.0.0
 _ZN5boost6system12system_errorD2Ev@Base 2.0.0
 _ZN5boost6system14error_categoryD0Ev@Base 2.0.0
 _ZN5boost6system14error_categoryD1Ev@Base 2.0.0
 _ZN5boost6thread16make_thread_infoINS_3_bi6bind_tImNS_4_mfi3mf0ImNS_4asio10io_serviceEEENS2_5list1INS2_5valueIPS7_EEEEEEEENS_10shared_ptrINS_6detail16thread_data_baseEEET_@Base 2.0.0
 _ZN5boost6threadC1INS_3_bi6bind_tIvNS_4_mfi3mf0IvN4zeep4http6serverEEENS2_5list1INS2_5valueIPS8_EEEEEEEET_NS_10disable_ifINS_14is_convertibleIRSG_NS_6detail13thread_move_tISG_EEEEPNS0_5dummyEE4typeE@Base 2.0.0
 _ZN5boost6tuples5tupleISsSsNS0_9null_typeES2_S2_S2_S2_S2_S2_S2_ED1Ev@Base 2.0.0
 _ZN5boost8functionIFPSiRKSsS3_S3_EED1Ev@Base 2.0.0
 _ZN5boost8functionIFbPKN4zeep3xml4nodeEEEC1ERKS7_@Base 2.0.0
 _ZN5boost8functionIFbPKN4zeep3xml4nodeEEEaSINS_3_bi6bind_tIbPS6_NS9_5list1INS_3argILi1EEEEEEEEENS_11enable_if_cIXsrNS_11type_traits7ice_notIXsrNS_11is_integralIT_EE5valueEEE5valueERS7_E4typeESL_@Base 2.0.0
 _ZN5boost8functionIFvRKSsEED1Ev@Base 2.0.0
 _ZN5boost8functionIFvRKSsEEaSINS_3_bi6bind_tIvNS_4_mfi3mf1IvN4zeep3xml17zeep_document_impES2_EENS6_5list2INS6_5valueIPSC_EENS_3argILi1EEEEEEEEENS_11enable_if_cIXsrNS_11type_traits7ice_notIXsrNS_11is_integralIT_EE5valueEEE5valueERS4_E4typeESQ_@Base 2.0.0
 _ZN5boost8functionIFvRKSsS2_EED1Ev@Base 2.0.0
 _ZN5boost8functionIFvRKSsS2_EEaSINS_3_bi6bind_tIvNS_4_mfi3mf2IvN4zeep3xml17zeep_document_impES2_S2_EENS6_5list3INS6_5valueIPSC_EENS_3argILi1EEENSI_ILi2EEEEEEEEENS_11enable_if_cIXsrNS_11type_traits7ice_notIXsrNS_11is_integralIT_EE5valueEEE5valueERS4_E4typeESR_@Base 2.0.0
 _ZN5boost8functionIFvRKSsS2_RKSt4listIN4zeep3xml6detail4attrESaIS7_EEEED1Ev@Base 2.0.0
 _ZN5boost8functionIFvRKSsS2_S2_EED1Ev@Base 2.0.0
 _ZN5boost8functionIFvvEED1Ev@Base 2.0.0
 _ZN5boost9algorithm10iter_splitISt6vectorISsSaISsEESsNS0_6detail13token_finderFINS5_10is_any_ofFIcEEEEEERT_SB_RT0_T1_@Base 2.0.0
 _ZN5boost9algorithm11replace_allISsA3_cSsEEvRT_RKT0_RKT1_@Base 2.0.0
 _ZN5boost9algorithm11replace_allISsPKcS3_EEvRT_RKT0_RKT1_@Base 2.0.0
 _ZN5boost9algorithm11replace_allISsPKcSsEEvRT_RKT0_RKT1_@Base 2.0.0
 _ZN5boost9algorithm14split_iteratorIN9__gnu_cxx17__normal_iteratorIPcSsEEE9incrementEv@Base 2.0.0
 _ZN5boost9algorithm4trimISsEEvRT_RKSt6locale@Base 2.0.0
 _ZN5boost9algorithm6detail10is_any_ofFIcEC1ERKS3_@Base 2.0.0
 _ZN5boost9algorithm6detail10is_any_ofFIcED1Ev@Base 2.0.0
 _ZN5boost9algorithm6detail15process_segmentISt5dequeIcSaIcEESsN9__gnu_cxx17__normal_iteratorIPcSsEEEET1_RT_RT0_SA_SA_SA_@Base 2.0.0
 _ZN5boost9algorithm6detail18find_iterator_baseIN9__gnu_cxx17__normal_iteratorIPcSsEEED2Ev@Base 2.0.0
 _ZN5boost9algorithm6detail21find_format_all_impl2ISsNS1_13first_finderFIN9__gnu_cxx17__normal_iteratorIPKcSsEENS0_8is_equalEEENS1_13empty_formatFIcEENS_14iterator_rangeINS5_IPcSsEEEENS1_15empty_containerIcEEEEvRT_T0_T1_T2_T3_@Base 2.0.0
 _ZN5boost9algorithm6detail21find_format_all_impl2ISsNS1_13first_finderFIPKcNS0_8is_equalEEENS1_13const_formatFINS_14iterator_rangeIN9__gnu_cxx17__normal_iteratorIS5_SsEEEEEENS9_INSB_IPcSsEEEESD_EEvRT_T0_T1_T2_T3_@Base 2.0.0
 _ZN5boost9algorithm6detail21find_format_all_impl2ISsNS1_13first_finderFIPKcNS0_8is_equalEEENS1_13const_formatFINS_14iterator_rangeIS5_EEEENS9_IN9__gnu_cxx17__normal_iteratorIPcSsEEEESA_EEvRT_T0_T1_T2_T3_@Base 2.0.0
 _ZN5boost9algorithm6detail21find_format_all_impl2ISsNS1_13first_finderFIPKcNS0_8is_equalEEENS1_13empty_formatFIcEENS_14iterator_rangeIN9__gnu_cxx17__normal_iteratorIPcSsEEEENS1_15empty_containerIcEEEEvRT_T0_T1_T2_T3_@Base 2.0.0
 _ZN5boost9algorithm9erase_allISsPKcEEvRT_RKT0_@Base 2.0.0
 _ZN5boost9algorithm9erase_allISsSsEEvRT_RKT0_@Base 2.0.0
 _ZN5boost9date_time10date_facetINS_9gregorian4dateEcSt19ostreambuf_iteratorIcSt11char_traitsIcEEE14set_iso_formatEv@Base 2.0.0
 _ZN5boost9date_time10date_facetINS_9gregorian4dateEcSt19ostreambuf_iteratorIcSt11char_traitsIcEEE17long_month_formatE@Base 2.0.0
 _ZN5boost9date_time10date_facetINS_9gregorian4dateEcSt19ostreambuf_iteratorIcSt11char_traitsIcEEE18short_month_formatE@Base 2.0.0
 _ZN5boost9date_time10date_facetINS_9gregorian4dateEcSt19ostreambuf_iteratorIcSt11char_traitsIcEEE19long_weekday_formatE@Base 2.0.0
 _ZN5boost9date_time10date_facetINS_9gregorian4dateEcSt19ostreambuf_iteratorIcSt11char_traitsIcEEE20iso_format_specifierE@Base 2.0.0
 _ZN5boost9date_time10date_facetINS_9gregorian4dateEcSt19ostreambuf_iteratorIcSt11char_traitsIcEEE20short_weekday_formatE@Base 2.0.0
 _ZN5boost9date_time10date_facetINS_9gregorian4dateEcSt19ostreambuf_iteratorIcSt11char_traitsIcEEE23set_iso_extended_formatEv@Base 2.0.0
 _ZN5boost9date_time10date_facetINS_9gregorian4dateEcSt19ostreambuf_iteratorIcSt11char_traitsIcEEE29iso_format_extended_specifierE@Base 2.0.0
 _ZN5boost9date_time10date_facetINS_9gregorian4dateEcSt19ostreambuf_iteratorIcSt11char_traitsIcEEED0Ev@Base 2.0.0
 _ZN5boost9date_time10date_facetINS_9gregorian4dateEcSt19ostreambuf_iteratorIcSt11char_traitsIcEEED1Ev@Base 2.0.0
 _ZN5boost9date_time10date_facetINS_9gregorian4dateEcSt19ostreambuf_iteratorIcSt11char_traitsIcEEED2Ev@Base 2.0.0
 _ZN5boost9date_time10time_facetINS_10posix_time5ptimeEcSt19ostreambuf_iteratorIcSt11char_traitsIcEEE12hours_formatE@Base 2.0.0
 _ZN5boost9date_time10time_facetINS_10posix_time5ptimeEcSt19ostreambuf_iteratorIcSt11char_traitsIcEEE13negative_signE@Base 2.0.0
 _ZN5boost9date_time10time_facetINS_10posix_time5ptimeEcSt19ostreambuf_iteratorIcSt11char_traitsIcEEE13positive_signE@Base 2.0.0
 _ZN5boost9date_time10time_facetINS_10posix_time5ptimeEcSt19ostreambuf_iteratorIcSt11char_traitsIcEEE14seconds_formatE@Base 2.0.0
 _ZN5boost9date_time10time_facetINS_10posix_time5ptimeEcSt19ostreambuf_iteratorIcSt11char_traitsIcEEE14set_iso_formatEv@Base 2.0.0
 _ZN5boost9date_time10time_facetINS_10posix_time5ptimeEcSt19ostreambuf_iteratorIcSt11char_traitsIcEEE15zone_iso_formatE@Base 2.0.0
 _ZN5boost9date_time10time_facetINS_10posix_time5ptimeEcSt19ostreambuf_iteratorIcSt11char_traitsIcEEE16zone_name_formatE@Base 2.0.0
 _ZN5boost9date_time10time_facetINS_10posix_time5ptimeEcSt19ostreambuf_iteratorIcSt11char_traitsIcEEE18zone_abbrev_formatE@Base 2.0.0
 _ZN5boost9date_time10time_facetINS_10posix_time5ptimeEcSt19ostreambuf_iteratorIcSt11char_traitsIcEEE19default_time_formatE@Base 2.0.0
 _ZN5boost9date_time10time_facetINS_10posix_time5ptimeEcSt19ostreambuf_iteratorIcSt11char_traitsIcEEE20duration_sign_alwaysE@Base 2.0.0
 _ZN5boost9date_time10time_facetINS_10posix_time5ptimeEcSt19ostreambuf_iteratorIcSt11char_traitsIcEEE23set_iso_extended_formatEv@Base 2.0.0
 _ZN5boost9date_time10time_facetINS_10posix_time5ptimeEcSt19ostreambuf_iteratorIcSt11char_traitsIcEEE24posix_zone_string_formatE@Base 2.0.0
 _ZN5boost9date_time10time_facetINS_10posix_time5ptimeEcSt19ostreambuf_iteratorIcSt11char_traitsIcEEE24zone_iso_extended_formatE@Base 2.0.0
 _ZN5boost9date_time10time_facetINS_10posix_time5ptimeEcSt19ostreambuf_iteratorIcSt11char_traitsIcEEE25fractional_seconds_formatE@Base 2.0.0
 _ZN5boost9date_time10time_facetINS_10posix_time5ptimeEcSt19ostreambuf_iteratorIcSt11char_traitsIcEEE25iso_time_format_specifierE@Base 2.0.0
 _ZN5boost9date_time10time_facetINS_10posix_time5ptimeEcSt19ostreambuf_iteratorIcSt11char_traitsIcEEE25unrestricted_hours_formatE@Base 2.0.0
 _ZN5boost9date_time10time_facetINS_10posix_time5ptimeEcSt19ostreambuf_iteratorIcSt11char_traitsIcEEE27duration_sign_negative_onlyE@Base 2.0.0
 _ZN5boost9date_time10time_facetINS_10posix_time5ptimeEcSt19ostreambuf_iteratorIcSt11char_traitsIcEEE28default_time_duration_formatE@Base 2.0.0
 _ZN5boost9date_time10time_facetINS_10posix_time5ptimeEcSt19ostreambuf_iteratorIcSt11char_traitsIcEEE2idE@Base 2.0.0
 _ZN5boost9date_time10time_facetINS_10posix_time5ptimeEcSt19ostreambuf_iteratorIcSt11char_traitsIcEEE33fractional_seconds_or_none_formatE@Base 2.0.0
 _ZN5boost9date_time10time_facetINS_10posix_time5ptimeEcSt19ostreambuf_iteratorIcSt11char_traitsIcEEE34iso_time_format_extended_specifierE@Base 2.0.0
 _ZN5boost9date_time10time_facetINS_10posix_time5ptimeEcSt19ostreambuf_iteratorIcSt11char_traitsIcEEE38seconds_with_fractional_seconds_formatE@Base 2.0.0
 _ZN5boost9date_time10time_facetINS_10posix_time5ptimeEcSt19ostreambuf_iteratorIcSt11char_traitsIcEEED0Ev@Base 2.0.0
 _ZN5boost9date_time10time_facetINS_10posix_time5ptimeEcSt19ostreambuf_iteratorIcSt11char_traitsIcEEED1Ev@Base 2.0.0
 _ZN5boost9date_time12second_clockINS_10posix_time5ptimeEE10local_timeEv@Base 2.0.0
 _ZN5boost9date_time12time_formatsIcE12hours_formatE@Base 2.0.0
 _ZN5boost9date_time12time_formatsIcE13negative_signE@Base 2.0.0
 _ZN5boost9date_time12time_formatsIcE13positive_signE@Base 2.0.0
 _ZN5boost9date_time12time_formatsIcE14seconds_formatE@Base 2.0.0
 _ZN5boost9date_time12time_formatsIcE15zone_iso_formatE@Base 2.0.0
 _ZN5boost9date_time12time_formatsIcE16zone_name_formatE@Base 2.0.0
 _ZN5boost9date_time12time_formatsIcE18zone_abbrev_formatE@Base 2.0.0
 _ZN5boost9date_time12time_formatsIcE19default_time_formatE@Base 2.0.0
 _ZN5boost9date_time12time_formatsIcE20duration_sign_alwaysE@Base 2.0.0
 _ZN5boost9date_time12time_formatsIcE24posix_zone_string_formatE@Base 2.0.0
 _ZN5boost9date_time12time_formatsIcE24zone_iso_extended_formatE@Base 2.0.0
 _ZN5boost9date_time12time_formatsIcE25fractional_seconds_formatE@Base 2.0.0
 _ZN5boost9date_time12time_formatsIcE25iso_time_format_specifierE@Base 2.0.0
 _ZN5boost9date_time12time_formatsIcE25unrestricted_hours_formatE@Base 2.0.0
 _ZN5boost9date_time12time_formatsIcE27duration_sign_negative_onlyE@Base 2.0.0
 _ZN5boost9date_time12time_formatsIcE28default_time_duration_formatE@Base 2.0.0
 _ZN5boost9date_time12time_formatsIcE33fractional_seconds_or_none_formatE@Base 2.0.0
 _ZN5boost9date_time12time_formatsIcE34iso_time_format_extended_specifierE@Base 2.0.0
 _ZN5boost9date_time12time_formatsIcE38seconds_with_fractional_seconds_formatE@Base 2.0.0
 _ZN5boost9date_time16period_formatterIcSt19ostreambuf_iteratorIcSt11char_traitsIcEEE24default_period_separatorE@Base 2.0.0
 _ZN5boost9date_time16period_formatterIcSt19ostreambuf_iteratorIcSt11char_traitsIcEEE30default_period_start_delimeterE@Base 2.0.0
 _ZN5boost9date_time16period_formatterIcSt19ostreambuf_iteratorIcSt11char_traitsIcEEE39default_period_open_range_end_delimeterE@Base 2.0.0
 _ZN5boost9date_time16period_formatterIcSt19ostreambuf_iteratorIcSt11char_traitsIcEEE41default_period_closed_range_end_delimeterE@Base 2.0.0
 _ZN5boost9date_time16period_formatterIcSt19ostreambuf_iteratorIcSt11char_traitsIcEEED1Ev@Base 2.0.0
 _ZN5boost9date_time23gregorian_calendar_baseINS0_19year_month_day_baseINS_9gregorian9greg_yearENS3_10greg_monthENS3_8greg_dayEEEjE10day_numberERKS7_@Base 2.0.0
 _ZN5boost9date_time23gregorian_calendar_baseINS0_19year_month_day_baseINS_9gregorian9greg_yearENS3_10greg_monthENS3_8greg_dayEEEjE15from_day_numberEj@Base 2.0.0
 _ZN5boost9date_time24date_generator_formatterINS_9gregorian4dateEcSt19ostreambuf_iteratorIcSt11char_traitsIcEEE11last_stringE@Base 2.0.0
 _ZN5boost9date_time24date_generator_formatterINS_9gregorian4dateEcSt19ostreambuf_iteratorIcSt11char_traitsIcEEE12after_stringE@Base 2.0.0
 _ZN5boost9date_time24date_generator_formatterINS_9gregorian4dateEcSt19ostreambuf_iteratorIcSt11char_traitsIcEEE12fifth_stringE@Base 2.0.0
 _ZN5boost9date_time24date_generator_formatterINS_9gregorian4dateEcSt19ostreambuf_iteratorIcSt11char_traitsIcEEE12first_stringE@Base 2.0.0
 _ZN5boost9date_time24date_generator_formatterINS_9gregorian4dateEcSt19ostreambuf_iteratorIcSt11char_traitsIcEEE12third_stringE@Base 2.0.0
 _ZN5boost9date_time24date_generator_formatterINS_9gregorian4dateEcSt19ostreambuf_iteratorIcSt11char_traitsIcEEE13before_stringE@Base 2.0.0
 _ZN5boost9date_time24date_generator_formatterINS_9gregorian4dateEcSt19ostreambuf_iteratorIcSt11char_traitsIcEEE13fourth_stringE@Base 2.0.0
 _ZN5boost9date_time24date_generator_formatterINS_9gregorian4dateEcSt19ostreambuf_iteratorIcSt11char_traitsIcEEE13second_stringE@Base 2.0.0
 _ZN5boost9date_time24date_generator_formatterINS_9gregorian4dateEcSt19ostreambuf_iteratorIcSt11char_traitsIcEEE9of_stringE@Base 2.0.0
 _ZN5boost9date_time24date_generator_formatterINS_9gregorian4dateEcSt19ostreambuf_iteratorIcSt11char_traitsIcEEEC1Ev@Base 2.0.0
 _ZN5boost9date_time24special_values_formatterIcSt19ostreambuf_iteratorIcSt11char_traitsIcEEE27default_special_value_namesE@Base 2.0.0
 _ZN5boost9exceptionD2Ev@Base 2.0.0
 _ZN5boost9function0IvE5dummy7nonnullEv@Base 2.0.0
 _ZN5boost9function1IbPKN4zeep3xml4nodeEE5clearEv@Base 2.0.0
 _ZN5boost9function1IvRKSsE5clearEv@Base 2.0.0
 _ZN5boost9function1IvRKSsE5dummy7nonnullEv@Base 2.0.0
 _ZN5boost9function2IvRKSsS2_E5clearEv@Base 2.0.0
 _ZN5boost9function2IvRKSsS2_E5dummy7nonnullEv@Base 2.0.0
 _ZN5boost9function3IPSiRKSsS3_S3_E5clearEv@Base 2.0.0
 _ZN5boost9function3IPSiRKSsS3_S3_E5dummy7nonnullEv@Base 2.0.0
 _ZN5boost9function3IvRKSsS2_RKSt4listIN4zeep3xml6detail4attrESaIS7_EEE5clearEv@Base 2.0.0
 _ZN5boost9function3IvRKSsS2_RKSt4listIN4zeep3xml6detail4attrESaIS7_EEE5dummy7nonnullEv@Base 2.0.0
 _ZN5boost9function3IvRKSsS2_S2_E5clearEv@Base 2.0.0
 _ZN5boost9function3IvRKSsS2_S2_E5dummy7nonnullEv@Base 2.0.0
 _ZN5boost9gregorian10greg_monthC1Et@Base 2.0.0
 _ZN5boost9gregorian11bad_weekdayD0Ev@Base 2.0.0
 _ZN5boost9gregorian11bad_weekdayD1Ev@Base 2.0.0
 _ZN5boost9gregorian15bad_day_of_yearD0Ev@Base 2.0.0
 _ZN5boost9gregorian15bad_day_of_yearD1Ev@Base 2.0.0
 _ZN5boost9gregorian16bad_day_of_monthD0Ev@Base 2.0.0
 _ZN5boost9gregorian16bad_day_of_monthD1Ev@Base 2.0.0
 _ZN5boost9gregorian4dateC1ENS0_9greg_yearENS0_10greg_monthENS0_8greg_dayE@Base 2.0.0
 _ZN5boost9gregorian5to_tmERKNS0_4dateE@Base 2.0.0
 _ZN5boost9gregorian8bad_yearD0Ev@Base 2.0.0
 _ZN5boost9gregorian8bad_yearD1Ev@Base 2.0.0
 _ZN5boost9gregorian8greg_dayC1Et@Base 2.0.0
 _ZN5boost9gregorian9bad_monthD0Ev@Base 2.0.0
 _ZN5boost9gregorian9bad_monthD1Ev@Base 2.0.0
 _ZN5boost9gregorian9greg_yearC1Et@Base 2.0.0
 _ZNK4zeep3xml10name_space2nsEv@Base 2.0.0
 _ZNK4zeep3xml10name_space3strEv@Base 2.0.0
 _ZNK4zeep3xml10name_space5qnameEv@Base 2.0.0
 _ZNK4zeep3xml10name_space5writeERNS0_6writerE@Base 2.0.0
 _ZNK4zeep3xml10name_space6equalsEPKNS0_4nodeE@Base 2.0.0
 _ZNK4zeep3xml10name_space6prefixEv@Base 2.0.0
 _ZNK4zeep3xml10parser_imp11get_elementERKSs@Base 2.0.0
 _ZNK4zeep3xml10parser_imp15not_well_formedERKN5boost12basic_formatIcSt11char_traitsIcESaIcEEE@Base 2.0.0
 _ZNK4zeep3xml10parser_imp15not_well_formedERKSs@Base 2.0.0
 _ZNK4zeep3xml10parser_imp18get_general_entityERKSs@Base 2.0.0
 _ZNK4zeep3xml10parser_imp20get_parameter_entityERKSs@Base 2.0.0
 _ZNK4zeep3xml10parser_imp9not_validERKN5boost12basic_formatIcSt11char_traitsIcESaIcEEE@Base 2.0.0
 _ZNK4zeep3xml10parser_imp9not_validERKSs@Base 2.0.0
 _ZNK4zeep3xml11data_source12auto_discardEv@Base 2.0.0
 _ZNK4zeep3xml18expression_context4lastEv@Base 2.0.0
 _ZNK4zeep3xml18expression_context8positionEv@Base 2.0.0
 _ZNK4zeep3xml22processing_instruction3strEv@Base 2.0.0
 _ZNK4zeep3xml22processing_instruction4textEv@Base 2.0.0
 _ZNK4zeep3xml22processing_instruction5qnameEv@Base 2.0.0
 _ZNK4zeep3xml22processing_instruction5writeERNS0_6writerE@Base 2.0.0
 _ZNK4zeep3xml22processing_instruction6equalsEPKNS0_4nodeE@Base 2.0.0
 _ZNK4zeep3xml28parameter_entity_data_source12auto_discardEv@Base 2.0.0
 _ZNK4zeep3xml4node20namespace_for_prefixERKSs@Base 2.0.0
 _ZNK4zeep3xml4node20prefix_for_namespaceERKSs@Base 2.0.0
 _ZNK4zeep3xml4node2nsEv@Base 2.0.0
 _ZNK4zeep3xml4node4langEv@Base 2.0.0
 _ZNK4zeep3xml4node4nameEv@Base 2.0.0
 _ZNK4zeep3xml4node4rootEv@Base 2.0.0
 _ZNK4zeep3xml4node5qnameEv@Base 2.0.0
 _ZNK4zeep3xml4node6equalsEPKS1_@Base 2.0.0
 _ZNK4zeep3xml4node6prefixEv@Base 2.0.0
 _ZNK4zeep3xml4text3strEv@Base 2.0.0
 _ZNK4zeep3xml4text5writeERNS0_6writerE@Base 2.0.0
 _ZNK4zeep3xml4text6equalsEPKNS0_4nodeE@Base 2.0.0
 _ZNK4zeep3xml5xpath8evaluateINS0_4nodeEEESt4listIPT_SaIS6_EERKS3_@Base 2.0.0
 _ZNK4zeep3xml5xpath8evaluateINS0_4nodeEEESt4listIPT_SaIS6_EERKS3_RNS0_7contextE@Base 2.0.0
 _ZNK4zeep3xml5xpath8evaluateINS0_7elementEEESt4listIPT_SaIS6_EERKNS0_4nodeE@Base 2.0.0
 _ZNK4zeep3xml5xpath8evaluateINS0_7elementEEESt4listIPT_SaIS6_EERKNS0_4nodeERNS0_7contextE@Base 2.0.0
 _ZNK4zeep3xml6object2asIRKSsEEKT_v@Base 2.0.0
 _ZNK4zeep3xml6object2asIRKSt4listIPNS0_4nodeESaIS5_EEEEKT_v@Base 2.0.0
 _ZNK4zeep3xml6object2asISsEEKT_v@Base 2.0.0
 _ZNK4zeep3xml6object2asIbEEKT_v@Base 2.0.0
 _ZNK4zeep3xml6object2asIdEEKT_v@Base 2.0.0
 _ZNK4zeep3xml6object2asIiEEKT_v@Base 2.0.0
 _ZNK4zeep3xml7comment3strEv@Base 2.0.0
 _ZNK4zeep3xml7comment4textEv@Base 2.0.0
 _ZNK4zeep3xml7comment5writeERNS0_6writerE@Base 2.0.0
 _ZNK4zeep3xml7comment6equalsEPKNS0_4nodeE@Base 2.0.0
 _ZNK4zeep3xml7doctype11allowed_any12create_stateEv@Base 2.0.0
 _ZNK4zeep3xml7doctype11allowed_seq12create_stateEv@Base 2.0.0
 _ZNK4zeep3xml7doctype11allowed_seq15element_contentEv@Base 2.0.0
 _ZNK4zeep3xml7doctype12allowed_base15element_contentEv@Base 2.0.0
 _ZNK4zeep3xml7doctype13allowed_empty12create_stateEv@Base 2.0.0
 _ZNK4zeep3xml7doctype14allowed_choice12create_stateEv@Base 2.0.0
 _ZNK4zeep3xml7doctype14allowed_choice15element_contentEv@Base 2.0.0
 _ZNK4zeep3xml7doctype15allowed_element12create_stateEv@Base 2.0.0
 _ZNK4zeep3xml7doctype15allowed_element15element_contentEv@Base 2.0.0
 _ZNK4zeep3xml7doctype16allowed_repeated12create_stateEv@Base 2.0.0
 _ZNK4zeep3xml7doctype16allowed_repeated15element_contentEv@Base 2.0.0
 _ZNK4zeep3xml7doctype6entity4nameEv@Base 2.0.0
 _ZNK4zeep3xml7doctype7element13get_attributeERKSs@Base 2.0.0
 _ZNK4zeep3xml7doctype7element13get_validatorEv@Base 2.0.0
 _ZNK4zeep3xml7doctype7element15element_contentEv@Base 2.0.0
 _ZNK4zeep3xml7doctype7element4nameEv@Base 2.0.0
 _ZNK4zeep3xml7doctype7element5emptyEv@Base 2.0.0
 _ZNK4zeep3xml7doctype9attribute10is_nmtokenERSs@Base 2.0.0
 _ZNK4zeep3xml7doctype9attribute11is_nmtokensERSs@Base 2.0.0
 _ZNK4zeep3xml7doctype9attribute14validate_valueERSsRKN5boost10ptr_vectorINS1_6entityENS4_20heap_clone_allocatorESaIPvEEE@Base 2.0.0
 _ZNK4zeep3xml7doctype9attribute18is_unparsed_entityERKSsRKN5boost10ptr_vectorINS1_6entityENS5_20heap_clone_allocatorESaIPvEEE@Base 2.0.0
 _ZNK4zeep3xml7doctype9attribute4nameEv@Base 2.0.0
 _ZNK4zeep3xml7doctype9attribute7is_nameERSs@Base 2.0.0
 _ZNK4zeep3xml7doctype9attribute8get_typeEv@Base 2.0.0
 _ZNK4zeep3xml7doctype9attribute8is_namesERSs@Base 2.0.0
 _ZNK4zeep3xml7element10attributesEv@Base 2.0.0
 _ZNK4zeep3xml7element11name_spacesEv@Base 2.0.0
 _ZNK4zeep3xml7element13get_attributeERKSs@Base 2.0.0
 _ZNK4zeep3xml7element18get_attribute_nodeERKSs@Base 2.0.0
 _ZNK4zeep3xml7element20namespace_for_prefixERKSs@Base 2.0.0
 _ZNK4zeep3xml7element20prefix_for_namespaceERKSs@Base 2.0.0
 _ZNK4zeep3xml7element2idEv@Base 2.0.0
 _ZNK4zeep3xml7element3strEv@Base 2.0.0
 _ZNK4zeep3xml7element4langEv@Base 2.0.0
 _ZNK4zeep3xml7element5qnameEv@Base 2.0.0
 _ZNK4zeep3xml7element5writeERNS0_6writerE@Base 2.0.0
 _ZNK4zeep3xml7element6equalsEPKNS0_4nodeE@Base 2.0.0
 _ZNK4zeep3xml7element7contentEv@Base 2.0.0
 _ZNK4zeep3xml8document10no_commentEv@Base 2.0.0
 _ZNK4zeep3xml8document4rootEv@Base 2.0.0
 _ZNK4zeep3xml8document4trimEv@Base 2.0.0
 _ZNK4zeep3xml8document4wrapEv@Base 2.0.0
 _ZNK4zeep3xml8document5childEv@Base 2.0.0
 _ZNK4zeep3xml8document5writeERNS0_6writerE@Base 2.0.0
 _ZNK4zeep3xml8document6indentEv@Base 2.0.0
 _ZNK4zeep3xml8document8encodingEv@Base 2.0.0
 _ZNK4zeep3xml8documenteqERKS1_@Base 2.0.0
 _ZNK4zeep3xml9attribute2idEv@Base 2.0.0
 _ZNK4zeep3xml9attribute3strEv@Base 2.0.0
 _ZNK4zeep3xml9attribute5qnameEv@Base 2.0.0
 _ZNK4zeep3xml9attribute5writeERNS0_6writerE@Base 2.0.0
 _ZNK4zeep3xml9attribute6equalsEPKNS0_4nodeE@Base 2.0.0
 _ZNK4zeep3xml9container10find_firstERKSs@Base 2.0.0
 _ZNK4zeep3xml9container4findERKSs@Base 2.0.0
 _ZNK4zeep3xml9container8childrenINS0_4nodeEEESt4listIPT_SaIS6_EEv@Base 2.0.0
 _ZNK4zeep3xml9container8childrenINS0_7elementEEESt4listIPT_SaIS6_EEv@Base 2.0.0
 _ZNK4zeep3xml9root_node13child_elementEv@Base 2.0.0
 _ZNK4zeep3xml9root_node3strEv@Base 2.0.0
 _ZNK4zeep3xml9root_node4rootEv@Base 2.0.0
 _ZNK4zeep3xml9root_node5writeERNS0_6writerE@Base 2.0.0
 _ZNK4zeep3xml9root_node6equalsEPKNS0_4nodeE@Base 2.0.0
 _ZNK4zeep6detail12handler_base15get_action_nameEv@Base 2.0.0
 _ZNK4zeep9exception4whatEv@Base 2.0.0
 _ZNK5boost10filesystem10basic_pathISsNS0_11path_traitsEE5beginEv@Base 2.0.0
 _ZNK5boost10filesystem22basic_filesystem_errorINS0_10basic_pathISsNS0_11path_traitsEEEE4whatEv@Base 2.0.0
 _ZNK5boost10lock_error4whatEv@Base 2.0.0
 _ZNK5boost12bad_weak_ptr4whatEv@Base 2.0.0
 _ZNK5boost12basic_formatIcSt11char_traitsIcESaIcEE3strEv@Base 2.0.0
 _ZNK5boost14iterator_rangeIN9__gnu_cxx17__normal_iteratorIPcSsEEE3endEv@Base 2.0.0
 _ZNK5boost15optional_detail13optional_baseISt6localeE14is_initializedEv@Base 2.0.0
 _ZNK5boost16bad_lexical_cast4whatEv@Base 2.0.0
 _ZNK5boost16exception_detail10clone_implINS0_19error_info_injectorINS_10filesystem22basic_filesystem_errorINS3_10basic_pathISsNS3_11path_traitsEEEEEEEE5cloneEv@Base 2.0.0
 _ZNK5boost16exception_detail10clone_implINS0_19error_info_injectorINS_10filesystem22basic_filesystem_errorINS3_10basic_pathISsNS3_11path_traitsEEEEEEEE7rethrowEv@Base 2.0.0
 _ZNK5boost16exception_detail10clone_implINS0_19error_info_injectorINS_12bad_weak_ptrEEEE5cloneEv@Base 2.0.0
 _ZNK5boost16exception_detail10clone_implINS0_19error_info_injectorINS_12bad_weak_ptrEEEE7rethrowEv@Base 2.0.0
 _ZNK5boost16exception_detail10clone_implINS0_19error_info_injectorINS_16bad_lexical_castEEEE5cloneEv@Base 2.0.0
 _ZNK5boost16exception_detail10clone_implINS0_19error_info_injectorINS_16bad_lexical_castEEEE7rethrowEv@Base 2.0.0
 _ZNK5boost16exception_detail10clone_implINS0_19error_info_injectorINS_17bad_function_callEEEE5cloneEv@Base 2.0.0
 _ZNK5boost16exception_detail10clone_implINS0_19error_info_injectorINS_17bad_function_callEEEE7rethrowEv@Base 2.0.0
 _ZNK5boost16exception_detail10clone_implINS0_19error_info_injectorINS_2io12too_few_argsEEEE5cloneEv@Base 2.0.0
 _ZNK5boost16exception_detail10clone_implINS0_19error_info_injectorINS_2io12too_few_argsEEEE7rethrowEv@Base 2.0.0
 _ZNK5boost16exception_detail10clone_implINS0_19error_info_injectorINS_2io13too_many_argsEEEE5cloneEv@Base 2.0.0
 _ZNK5boost16exception_detail10clone_implINS0_19error_info_injectorINS_2io13too_many_argsEEEE7rethrowEv@Base 2.0.0
 _ZNK5boost16exception_detail10clone_implINS0_19error_info_injectorINS_2io17bad_format_stringEEEE5cloneEv@Base 2.0.0
 _ZNK5boost16exception_detail10clone_implINS0_19error_info_injectorINS_2io17bad_format_stringEEEE7rethrowEv@Base 2.0.0
 _ZNK5boost16exception_detail10clone_implINS0_19error_info_injectorINS_6system12system_errorEEEE5cloneEv@Base 2.0.0
 _ZNK5boost16exception_detail10clone_implINS0_19error_info_injectorINS_6system12system_errorEEEE7rethrowEv@Base 2.0.0
 _ZNK5boost16exception_detail10clone_implINS0_19error_info_injectorINS_9gregorian11bad_weekdayEEEE5cloneEv@Base 2.0.0
 _ZNK5boost16exception_detail10clone_implINS0_19error_info_injectorINS_9gregorian11bad_weekdayEEEE7rethrowEv@Base 2.0.0
 _ZNK5boost16exception_detail10clone_implINS0_19error_info_injectorINS_9gregorian15bad_day_of_yearEEEE5cloneEv@Base 2.0.0
 _ZNK5boost16exception_detail10clone_implINS0_19error_info_injectorINS_9gregorian15bad_day_of_yearEEEE7rethrowEv@Base 2.0.0
 _ZNK5boost16exception_detail10clone_implINS0_19error_info_injectorINS_9gregorian16bad_day_of_monthEEEE5cloneEv@Base 2.0.0
 _ZNK5boost16exception_detail10clone_implINS0_19error_info_injectorINS_9gregorian16bad_day_of_monthEEEE7rethrowEv@Base 2.0.0
 _ZNK5boost16exception_detail10clone_implINS0_19error_info_injectorINS_9gregorian8bad_yearEEEE5cloneEv@Base 2.0.0
 _ZNK5boost16exception_detail10clone_implINS0_19error_info_injectorINS_9gregorian8bad_yearEEEE7rethrowEv@Base 2.0.0
 _ZNK5boost16exception_detail10clone_implINS0_19error_info_injectorINS_9gregorian9bad_monthEEEE5cloneEv@Base 2.0.0
 _ZNK5boost16exception_detail10clone_implINS0_19error_info_injectorINS_9gregorian9bad_monthEEEE7rethrowEv@Base 2.0.0
 _ZNK5boost16exception_detail10clone_implINS0_19error_info_injectorISt12out_of_rangeEEE5cloneEv@Base 2.0.0
 _ZNK5boost16exception_detail10clone_implINS0_19error_info_injectorISt12out_of_rangeEEE7rethrowEv@Base 2.0.0
 _ZNK5boost16exception_detail10clone_implINS0_19error_info_injectorISt13runtime_errorEEE5cloneEv@Base 2.0.0
 _ZNK5boost16exception_detail10clone_implINS0_19error_info_injectorISt13runtime_errorEEE7rethrowEv@Base 2.0.0
 _ZNK5boost21thread_resource_error4whatEv@Base 2.0.0
 _ZNK5boost27bad_ptr_container_operation4whatEv@Base 2.0.0
 _ZNK5boost2io12format_error4whatEv@Base 2.0.0
 _ZNK5boost2io12too_few_args4whatEv@Base 2.0.0
 _ZNK5boost2io13too_many_args4whatEv@Base 2.0.0
 _ZNK5boost2io17bad_format_string4whatEv@Base 2.0.0
 _ZNK5boost2io6detail19stream_format_stateIcSt11char_traitsIcEE8apply_onERSt9basic_iosIcS4_EPSt6locale@Base 2.0.0
 _ZNK5boost4asio12basic_socketINS0_2ip3tcpENS0_21stream_socket_serviceIS3_EEE15remote_endpointEv@Base 2.0.0
 _ZNK5boost4asio5error6detail12ssl_category4nameEv@Base 2.0.0
 _ZNK5boost4asio5error6detail12ssl_category7messageEi@Base 2.0.0
 _ZNK5boost4asio5error6detail13misc_category4nameEv@Base 2.0.0
 _ZNK5boost4asio5error6detail13misc_category7messageEi@Base 2.0.0
 _ZNK5boost4asio5error6detail14netdb_category4nameEv@Base 2.0.0
 _ZNK5boost4asio5error6detail14netdb_category7messageEi@Base 2.0.0
 _ZNK5boost4asio5error6detail17addrinfo_category4nameEv@Base 2.0.0
 _ZNK5boost4asio5error6detail17addrinfo_category7messageEi@Base 2.0.0
 _ZNK5boost4asio6detail13epoll_reactorILb0EE26all_timer_queues_are_emptyEv@Base 2.0.0
 _ZNK5boost4asio6detail16reactor_op_queueIiE13has_operationEi@Base 2.0.0
 _ZNK5boost6system12system_error4whatEv@Base 2.0.0
 _ZNK5boost6system14error_category10equivalentERKNS0_10error_codeEi@Base 2.0.0
 _ZNK5boost6system14error_category10equivalentEiRKNS0_15error_conditionE@Base 2.0.0
 _ZNK5boost6system14error_category23default_error_conditionEi@Base 2.0.0
 _ZNK5boost9algorithm6detail13first_finderFIPKcNS0_8is_equalEEclIN9__gnu_cxx17__normal_iteratorIPcSsEEEENS_14iterator_rangeIT_EESD_SD_@Base 2.0.0
 _ZNK5boost9date_time10date_facetINS_9gregorian4dateEcSt19ostreambuf_iteratorIcSt11char_traitsIcEEE14do_put_specialES7_RSt8ios_basecNS0_14special_valuesE@Base 2.0.0
 _ZNK5boost9date_time10date_facetINS_9gregorian4dateEcSt19ostreambuf_iteratorIcSt11char_traitsIcEEE9do_put_tmES7_RSt8ios_basecRK2tmSs@Base 2.0.0
 _ZNK5boost9date_time10time_facetINS_10posix_time5ptimeEcSt19ostreambuf_iteratorIcSt11char_traitsIcEEE3putES7_RSt8ios_basecRKNS2_13time_durationE@Base 2.0.0
 _ZNK5boost9date_time10time_facetINS_10posix_time5ptimeEcSt19ostreambuf_iteratorIcSt11char_traitsIcEEE3putES7_RSt8ios_basecRKS3_@Base 2.0.0
 _ZNK5boost9date_time11int_adapterIlE7compareERKS2_@Base 2.0.0
 _ZNK5boost9date_time13time_durationINS_10posix_time13time_durationENS0_22time_resolution_traitsINS0_37time_resolution_traits_adapted64_implELNS0_16time_resolutionsE5ELl1000000ELt6EiEEEltERKS8_@Base 2.0.0
 _ZNK5boost9date_time9base_timeINS_10posix_time5ptimeENS0_19counted_time_systemINS0_16counted_time_repINS2_33millisec_posix_time_system_configEEEEEE11time_of_dayEv@Base 2.0.0
 _ZNK5boost9date_time9base_timeINS_10posix_time5ptimeENS0_19counted_time_systemINS0_16counted_time_repINS2_33millisec_posix_time_system_configEEEEEE4dateEv@Base 2.0.0
 _ZNK5boost9function1IbPKN4zeep3xml4nodeEEclES5_@Base 2.0.0
 _ZNKSt13_Bit_iteratorplEl@Base 2.0.0
 _ZNKSt5ctypeIcE5widenEc@Base 2.0.0
 _ZNSs12_S_constructIN5boost18transform_iteratorINS0_9algorithm6detail9to_lowerFIcEEN9__gnu_cxx17__normal_iteratorIPKcSsEENS0_11use_defaultESB_EEEEPcT_SE_RKSaIcESt18input_iterator_tag@Base 2.0.0
 _ZNSs12_S_constructIN9__gnu_cxx17__normal_iteratorIPKcSsEEEEPcT_S6_RKSaIcESt20forward_iterator_tag@Base 2.0.0
 _ZNSs12_S_constructIN9__gnu_cxx17__normal_iteratorIPcSsEEEES2_T_S4_RKSaIcESt20forward_iterator_tag@Base 2.0.0
 _ZNSs12_S_constructIPcEES0_T_S1_RKSaIcESt20forward_iterator_tag@Base 2.0.0
 _ZNSs19_M_replace_dispatchISt15_Deque_iteratorIcRcPcEEERSsN9__gnu_cxx17__normal_iteratorIS2_SsEES7_T_S8_St12__false_type@Base 2.0.0
 _ZNSt10_List_baseIN5boost10shared_ptrIN4zeep3xml10expressionEEESaIS5_EED2Ev@Base 2.0.0
 _ZNSt11_Deque_baseISsSaISsEE17_M_initialize_mapEm@Base 2.0.0
 _ZNSt11_Deque_baseISsSaISsEED2Ev@Base 2.0.0
 _ZNSt11_Deque_baseIcSaIcEED2Ev@Base 2.0.0
 _ZNSt12out_of_rangeC2ERKS_@Base 2.0.0
 _ZNSt12out_of_rangeD0Ev@Base 2.0.0
 _ZNSt12out_of_rangeD1Ev@Base 2.0.0
 _ZNSt12out_of_rangeD2Ev@Base 2.0.0
 _ZNSt13_Bit_iteratorpLEl@Base 2.0.0
 _ZNSt15basic_stringbufIcSt11char_traitsIcESaIcEED1Ev@Base 2.0.0
 _ZNSt3setISsSt4lessISsESaISsEED1Ev@Base 2.0.0
 _ZNSt4listIN4zeep3xml12document_imp8notationESaIS3_EE6insertESt14_List_iteratorIS3_ERKS3_@Base 2.0.0
 _ZNSt4listIN4zeep3xml6detail4attrESaIS3_EE4sortIN5boost3_bi6bind_tIbNS8_4lessENS8_5list2INS9_IRKSsNS7_4_mfi2dmISsS3_EENS8_5list1INS7_3argILi1EEEEEEENS9_ISD_SG_NSH_INSI_ILi2EEEEEEEEEEEEEvT_@Base 2.0.0
 _ZNSt4listIN4zeep3xml6detail4attrESaIS3_EED1Ev@Base 2.0.0
 _ZNSt4listIN5boost10shared_ptrIN4zeep3xml10expressionEEESaIS5_EEC1ERKS7_@Base 2.0.0
 _ZNSt4listIPN4zeep3xml4nodeESaIS3_EE9push_backERKS3_@Base 2.0.0
 _ZNSt4listIPN4zeep3xml4nodeESaIS3_EEC1ERKS5_@Base 2.0.0
 _ZNSt4listIPN4zeep3xml4nodeESaIS3_EED1Ev@Base 2.0.0
 _ZNSt4listIPN4zeep3xml4nodeESaIS3_EEaSERKS5_@Base 2.0.0
 _ZNSt4pairIKSsN4zeep3xml6objectEED1Ev@Base 2.0.0
 _ZNSt4pairIKSsSsED1Ev@Base 2.0.0
 _ZNSt4pairISsSsEC1ERKS0_@Base 2.0.0
 _ZNSt4pairISsSsED1Ev@Base 2.0.0
 _ZNSt5dequeISsSaISsEE16_M_push_back_auxERKSs@Base 2.0.0
 _ZNSt5dequeISsSaISsEED1Ev@Base 2.0.0
 _ZNSt5dequeIcSaIcEE13_M_insert_auxIN9__gnu_cxx17__normal_iteratorIPKcSsEEEEvSt15_Deque_iteratorIcRcPcET_SC_m@Base 2.0.0
 _ZNSt5dequeIcSaIcEE13_M_insert_auxIPKcEEvSt15_Deque_iteratorIcRcPcET_S9_m@Base 2.0.0
 _ZNSt5dequeIcSaIcEE17_M_reallocate_mapEmb@Base 2.0.0
 _ZNSt5dequeIcSaIcEE23_M_new_elements_at_backEm@Base 2.0.0
 _ZNSt5dequeIcSaIcEE24_M_new_elements_at_frontEm@Base 2.0.0
 _ZNSt5dequeIcSaIcEE28_M_reserve_elements_at_frontEm@Base 2.0.0
 _ZNSt6localeC1IN5boost9date_time10time_facetINS1_10posix_time5ptimeEcSt19ostreambuf_iteratorIcSt11char_traitsIcEEEEEERKS_PT_@Base 2.0.0
 _ZNSt6vectorIN4zeep4http6headerESaIS2_EE13_M_insert_auxEN9__gnu_cxx17__normal_iteratorIPS2_S4_EERKS2_@Base 2.0.0
 _ZNSt6vectorIN4zeep4http6headerESaIS2_EE14_M_fill_insertEN9__gnu_cxx17__normal_iteratorIPS2_S4_EEmRKS2_@Base 2.0.0
 _ZNSt6vectorIN4zeep4http6headerESaIS2_EED1Ev@Base 2.0.0
 _ZNSt6vectorIN4zeep4http6headerESaIS2_EEaSERKS4_@Base 2.0.0
 _ZNSt6vectorIN5boost2io6detail11format_itemIcSt11char_traitsIcESaIcEEESaIS7_EE14_M_fill_assignEmRKS7_@Base 2.0.0
 _ZNSt6vectorIN5boost2io6detail11format_itemIcSt11char_traitsIcESaIcEEESaIS7_EE14_M_fill_insertEN9__gnu_cxx17__normal_iteratorIPS7_S9_EEmRKS7_@Base 2.0.0
 _ZNSt6vectorIN5boost2io6detail11format_itemIcSt11char_traitsIcESaIcEEESaIS7_EED1Ev@Base 2.0.0
 _ZNSt6vectorIN5boost4asio12const_bufferESaIS2_EE13_M_insert_auxEN9__gnu_cxx17__normal_iteratorIPS2_S4_EERKS2_@Base 2.0.0
 _ZNSt6vectorIN5boost4asio12const_bufferESaIS2_EEC1ERKS4_@Base 2.0.0
 _ZNSt6vectorIN5boost4asio2ip20basic_resolver_entryINS2_3tcpEEESaIS5_EE13_M_insert_auxEN9__gnu_cxx17__normal_iteratorIPS5_S7_EERKS5_@Base 2.0.0
 _ZNSt6vectorIN5boost4asio6detail8hash_mapIiPNS2_16reactor_op_queueIiE7op_baseEE11bucket_typeESaIS9_EE14_M_fill_insertEN9__gnu_cxx17__normal_iteratorIPS9_SB_EEmRKS9_@Base 2.0.0
 _ZNSt6vectorIPN5boost4asio6detail16timer_queue_baseESaIS4_EED1Ev@Base 2.0.0
 _ZNSt6vectorIPN5boost4asio6detail16timer_queue_baseESaIS4_EEaSERKS6_@Base 2.0.0
 _ZNSt6vectorIPvSaIS0_EE13_M_insert_auxEN9__gnu_cxx17__normal_iteratorIPS0_S2_EERKS0_@Base 2.0.0
 _ZNSt6vectorISsSaISsEE13_M_insert_auxEN9__gnu_cxx17__normal_iteratorIPSsS1_EERKSs@Base 2.0.0
 _ZNSt6vectorISsSaISsEE9push_backERKSs@Base 2.0.0
 _ZNSt6vectorISsSaISsEEC1IN5boost18transform_iteratorINS3_9algorithm6detail20copy_iterator_rangeFISsN9__gnu_cxx17__normal_iteratorIPcSsEEEENS5_14split_iteratorISB_EENS3_11use_defaultESF_EEEET_SH_RKS0_@Base 2.0.0
 _ZNSt6vectorISsSaISsEED1Ev@Base 2.0.0
 _ZNSt6vectorISt4pairISsSsESaIS1_EE13_M_insert_auxEN9__gnu_cxx17__normal_iteratorIPS1_S3_EERKS1_@Base 2.0.0
 _ZNSt6vectorISt4pairISsSsESaIS1_EED1Ev@Base 2.0.0
 _ZNSt8_Rb_treeISsSsSt9_IdentityISsESt4lessISsESaISsEE10_M_insert_EPKSt18_Rb_tree_node_baseS8_RKSs@Base 2.0.0
 _ZNSt8_Rb_treeISsSsSt9_IdentityISsESt4lessISsESaISsEE5eraseERKSs@Base 2.0.0
 _ZNSt8_Rb_treeISsSsSt9_IdentityISsESt4lessISsESaISsEE8_M_eraseEPSt13_Rb_tree_nodeISsE@Base 2.0.0
 _ZNSt8_Rb_treeISsSt4pairIKSsN4zeep3xml6objectEESt10_Select1stIS5_ESt4lessISsESaIS5_EE10_M_insert_EPKSt18_Rb_tree_node_baseSE_RKS5_@Base 2.0.0
 _ZNSt8_Rb_treeISsSt4pairIKSsN4zeep3xml6objectEESt10_Select1stIS5_ESt4lessISsESaIS5_EE16_M_insert_uniqueERKS5_@Base 2.0.0
 _ZNSt8_Rb_treeISsSt4pairIKSsN4zeep3xml6objectEESt10_Select1stIS5_ESt4lessISsESaIS5_EE17_M_insert_unique_ESt23_Rb_tree_const_iteratorIS5_ERKS5_@Base 2.0.0
 _ZNSt8_Rb_treeISsSt4pairIKSsN4zeep3xml6objectEESt10_Select1stIS5_ESt4lessISsESaIS5_EE8_M_eraseEPSt13_Rb_tree_nodeIS5_E@Base 2.0.0
 _ZNSt8_Rb_treeISsSt4pairIKSsPN4zeep3xml7elementEESt10_Select1stIS6_ESt4lessISsESaIS6_EE8_M_eraseEPSt13_Rb_tree_nodeIS6_E@Base 2.0.0
 _ZNSt8_Rb_treeISsSt4pairIKSsSsESt10_Select1stIS2_ESt4lessISsESaIS2_EE10_M_insert_EPKSt18_Rb_tree_node_baseSB_RKS2_@Base 2.0.0
 _ZNSt8_Rb_treeISsSt4pairIKSsSsESt10_Select1stIS2_ESt4lessISsESaIS2_EE16_M_insert_uniqueERKS2_@Base 2.0.0
 _ZNSt8_Rb_treeISsSt4pairIKSsSsESt10_Select1stIS2_ESt4lessISsESaIS2_EE17_M_insert_unique_ESt23_Rb_tree_const_iteratorIS2_ERKS2_@Base 2.0.0
 _ZNSt8_Rb_treeISsSt4pairIKSsSsESt10_Select1stIS2_ESt4lessISsESaIS2_EE8_M_eraseEPSt13_Rb_tree_nodeIS2_E@Base 2.0.0
 _ZNSt8auto_ptrIN4zeep3xml7doctype12allowed_baseEE5resetEPS3_@Base 2.0.0
 _ZNSt8auto_ptrIN4zeep3xml7doctype9attributeEE5resetEPS3_@Base 2.0.0
 _ZNSt8auto_ptrIN4zeep3xml7doctype9attributeEED1Ev@Base 2.0.0
 _ZNSt8auto_ptrIN5boost6threadEED1Ev@Base 2.0.0
 _ZSt13copy_backwardISt15_Deque_iteratorIcRcPcES3_ET0_T_S5_S4_@Base 2.0.0
 _ZSt16__insertion_sortIPcEvT_S1_@Base 2.0.0
 _ZSt16__introsort_loopIPclEvT_S1_T0_@Base 2.0.0
 _ZSt22__uninitialized_copy_aIPSsS0_SsET0_T_S2_S1_RSaIT1_E@Base 2.0.0
 _ZSt22__uninitialized_move_aIPN4zeep4http6headerES3_SaIS2_EET0_T_S6_S5_RT1_@Base 2.0.0
 _ZSt22__uninitialized_move_aIPN5boost2io6detail11format_itemIcSt11char_traitsIcESaIcEEES8_SaIS7_EET0_T_SB_SA_RT1_@Base 2.0.0
 _ZSt22__uninitialized_move_aIPN5boost4asio2ip20basic_resolver_entryINS2_3tcpEEES6_SaIS5_EET0_T_S9_S8_RT1_@Base 2.0.0
 _ZSt22__uninitialized_move_aIPSsS0_SaISsEET0_T_S3_S2_RT1_@Base 2.0.0
 _ZSt22__uninitialized_move_aIPSt4pairISsSsES2_SaIS1_EET0_T_S5_S4_RT1_@Base 2.0.0
 _ZSt24__uninitialized_fill_n_aIPN5boost2io6detail11format_itemIcSt11char_traitsIcESaIcEEEmS7_S7_EvT_T0_RKT1_RSaIT2_E@Base 2.0.0
 _ZSt3hexRSt8ios_base@Base 2.0.0
 _ZSt4fillIPN4zeep4http6headerES2_EvT_S4_RKT0_@Base 2.0.0
 _ZSt4fillSt13_Bit_iteratorS_RKb@Base 2.0.0
 _ZSt6__findIN9__gnu_cxx17__normal_iteratorIPKSsSt6vectorISsSaISsEEEESsET_S8_S8_RKT0_St26random_access_iterator_tag@Base 2.0.0
 _ZSt8_DestroyIN4zeep4http6headerEEvPT_@Base 2.0.0
 _ZSt9__find_ifIN5boost17void_ptr_iteratorIN9__gnu_cxx17__normal_iteratorIPKPvSt6vectorIS4_SaIS4_EEEEKN4zeep3xml7doctype6entityEEENS0_3_bi6bind_tIbNSH_5equalENSH_5list2INSI_IRKSsNS0_4_mfi4cmf0ISM_SE_EENSH_5list1INS0_3argILi1EEEEEEENSH_5valueISsEEEEEEET_SZ_SZ_T0_St26random_access_iterator_tag@Base 2.0.0
 _ZSt9__find_ifIN5boost17void_ptr_iteratorIN9__gnu_cxx17__normal_iteratorIPKPvSt6vectorIS4_SaIS4_EEEEKN4zeep3xml7doctype7elementEEENS0_3_bi6bind_tIbNSH_5equalENSH_5list2INSI_IRKSsNS0_4_mfi4cmf0ISM_SE_EENSH_5list1INS0_3argILi1EEEEEEENSH_5valueISsEEEEEEET_SZ_SZ_T0_St26random_access_iterator_tag@Base 2.0.0
 _ZSt9__find_ifIN5boost17void_ptr_iteratorIN9__gnu_cxx17__normal_iteratorIPKPvSt6vectorIS4_SaIS4_EEEEKN4zeep3xml7doctype9attributeEEENS0_3_bi6bind_tIbNSH_5equalENSH_5list2INSI_INSD_13AttributeTypeENS0_4_mfi4cmf0ISL_SE_EENSH_5list1INS0_3argILi1EEEEEEENSH_5valueISL_EEEEEEET_SY_SY_T0_St26random_access_iterator_tag@Base 2.0.0
 _ZSt9__find_ifIN5boost17void_ptr_iteratorIN9__gnu_cxx17__normal_iteratorIPKPvSt6vectorIS4_SaIS4_EEEEKN4zeep3xml7doctype9attributeEEENS0_3_bi6bind_tIbNSH_5equalENSH_5list2INSI_IRKSsNS0_4_mfi4cmf0ISM_SE_EENSH_5list1INS0_3argILi1EEEEEEENSH_5valueISsEEEEEEET_SZ_SZ_T0_St26random_access_iterator_tag@Base 2.0.0
 _ZSt9__find_ifIN5boost17void_ptr_iteratorIN9__gnu_cxx17__normal_iteratorIPPvSt6vectorIS4_SaIS4_EEEEN4zeep3xml7doctype6entityEEENS0_3_bi6bind_tIbNSF_5equalENSF_5list2INSG_IRKSsNS0_4_mfi4cmf0ISK_SD_EENSF_5list1INS0_3argILi1EEEEEEENSF_5valueISsEEEEEEET_SX_SX_T0_St26random_access_iterator_tag@Base 2.0.0
 _ZSt9__find_ifIN5boost17void_ptr_iteratorIN9__gnu_cxx17__normal_iteratorIPPvSt6vectorIS4_SaIS4_EEEEN4zeep3xml7doctype7elementEEENS0_3_bi6bind_tIbNSF_5equalENSF_5list2INSG_IRKSsNS0_4_mfi4cmf0ISK_SD_EENSF_5list1INS0_3argILi1EEEEEEENSF_5valueISsEEEEEEET_SX_SX_T0_St26random_access_iterator_tag@Base 2.0.0
 _ZSt9__find_ifIN5boost17void_ptr_iteratorIN9__gnu_cxx17__normal_iteratorIPPvSt6vectorIS4_SaIS4_EEEEN4zeep3xml7doctype9attributeEEENS0_3_bi6bind_tIbNSF_5equalENSF_5list2INSG_IRKSsNS0_4_mfi4cmf0ISK_SD_EENSF_5list1INS0_3argILi1EEEEEEENSF_5valueISsEEEEEEET_SX_SX_T0_St26random_access_iterator_tag@Base 2.0.0
 _ZSt9__find_ifIN5boost17void_ptr_iteratorIN9__gnu_cxx17__normal_iteratorIPPvSt6vectorIS4_SaIS4_EEEEN4zeep6detail12handler_baseEEENS0_3_bi6bind_tIbNSE_5equalENSE_5list2INSF_IRKSsNS0_4_mfi4cmf0ISJ_SC_EENSE_5list1INS0_3argILi1EEEEEEENSE_5valueISsEEEEEEET_SW_SW_T0_St26random_access_iterator_tag@Base 2.0.0
 _ZSt9__find_ifIN9__gnu_cxx17__normal_iteratorIPSt4pairISsSsESt6vectorIS3_SaIS3_EEEEN5boost3_bi6bind_tIbNSA_5equalENSA_5list2INSB_IRKSsNS9_4_mfi2dmISsS3_EENSA_5list1INS9_3argILi1EEEEEEENSA_5valueISsEEEEEEET_SS_SS_T0_St26random_access_iterator_tag@Base 2.0.0
 _ZSt9__find_ifIN9__gnu_cxx17__normal_iteratorIPcSsEEN5boost9algorithm6detail10is_any_ofFIcEEET_S9_S9_T0_St26random_access_iterator_tag@Base 2.0.0
 _ZSteqIcEN9__gnu_cxx11__enable_ifIXsrSt9__is_charIT_E7__valueEbE6__typeERKSbIS3_St11char_traitsIS3_ESaIS3_EESC_@Base 2.0.0
 _ZSteqIcSt11char_traitsIcESaIcEEbRKSbIT_T0_T1_EPKS3_@Base 2.0.0
 _ZStplIcSt11char_traitsIcESaIcEESbIT_T0_T1_ERKS6_S3_@Base 2.0.0
 _ZStplIcSt11char_traitsIcESaIcEESbIT_T0_T1_ERKS6_S8_@Base 2.0.0
 _ZTCN5boost10filesystem14basic_ifstreamIcSt11char_traitsIcEEE0_Si@Base 2.0.0
 _ZTCN5boost10filesystem14basic_ifstreamIcSt11char_traitsIcEEE0_St14basic_ifstreamIcS3_E@Base 2.0.0
 _ZTCN5boost2io22basic_oaltstringstreamIcSt11char_traitsIcESaIcEEE0_So@Base 2.0.0
 _ZTIN4zeep10dispatcherE@Base 2.0.0
 _ZTIN4zeep3xml10expressionE@Base 2.0.0
 _ZTIN4zeep3xml10name_spaceE@Base 2.0.0
 _ZTIN4zeep3xml11context_impE@Base 2.0.0
 _ZTIN4zeep3xml11data_sourceE@Base 2.0.0
 _ZTIN4zeep3xml12CoreFunctionE@Base 2.0.0
 _ZTIN4zeep3xml12document_impE@Base 2.0.0
 _ZTIN4zeep3xml15path_expressionE@Base 2.0.0
 _ZTIN4zeep3xml15root_expressionE@Base 2.0.0
 _ZTIN4zeep3xml15step_expressionE@Base 2.0.0
 _ZTIN4zeep3xml16not_wf_exceptionE@Base 2.0.0
 _ZTIN4zeep3xml16source_exceptionE@Base 2.0.0
 _ZTIN4zeep3xml16union_expressionE@Base 2.0.0
 _ZTIN4zeep3xml17invalid_exceptionE@Base 2.0.0
 _ZTIN4zeep3xml17negate_expressionE@Base 2.0.0
 _ZTIN4zeep3xml17number_expressionE@Base 2.0.0
 _ZTIN4zeep3xml17zeep_document_impE@Base 2.0.0
 _ZTIN4zeep3xml18entity_data_sourceE@Base 2.0.0
 _ZTIN4zeep3xml18expression_contextE@Base 2.0.0
 _ZTIN4zeep3xml18literal_expressionE@Base 2.0.0
 _ZTIN4zeep3xml18string_data_sourceE@Base 2.0.0
 _ZTIN4zeep3xml19istream_data_sourceE@Base 2.0.0
 _ZTIN4zeep3xml19operator_expressionILNS0_5TokenE269EEE@Base 2.0.0
 _ZTIN4zeep3xml19operator_expressionILNS0_5TokenE270EEE@Base 2.0.0
 _ZTIN4zeep3xml19operator_expressionILNS0_5TokenE271EEE@Base 2.0.0
 _ZTIN4zeep3xml19operator_expressionILNS0_5TokenE272EEE@Base 2.0.0
 _ZTIN4zeep3xml19operator_expressionILNS0_5TokenE273EEE@Base 2.0.0
 _ZTIN4zeep3xml19operator_expressionILNS0_5TokenE274EEE@Base 2.0.0
 _ZTIN4zeep3xml19operator_expressionILNS0_5TokenE275EEE@Base 2.0.0
 _ZTIN4zeep3xml19operator_expressionILNS0_5TokenE276EEE@Base 2.0.0
 _ZTIN4zeep3xml19operator_expressionILNS0_5TokenE277EEE@Base 2.0.0
 _ZTIN4zeep3xml19operator_expressionILNS0_5TokenE278EEE@Base 2.0.0
 _ZTIN4zeep3xml19operator_expressionILNS0_5TokenE279EEE@Base 2.0.0
 _ZTIN4zeep3xml19operator_expressionILNS0_5TokenE280EEE@Base 2.0.0
 _ZTIN4zeep3xml19variable_expressionE@Base 2.0.0
 _ZTIN4zeep3xml20node_type_expressionINS0_22processing_instructionEEE@Base 2.0.0
 _ZTIN4zeep3xml20node_type_expressionINS0_4nodeEEE@Base 2.0.0
 _ZTIN4zeep3xml20node_type_expressionINS0_4textEEE@Base 2.0.0
 _ZTIN4zeep3xml20node_type_expressionINS0_7commentEEE@Base 2.0.0
 _ZTIN4zeep3xml20predicate_expressionE@Base 2.0.0
 _ZTIN4zeep3xml22processing_instructionE@Base 2.0.0
 _ZTIN4zeep3xml24core_function_expressionILNS0_12CoreFunctionE0EEE@Base 2.0.0
 _ZTIN4zeep3xml24core_function_expressionILNS0_12CoreFunctionE10EEE@Base 2.0.0
 _ZTIN4zeep3xml24core_function_expressionILNS0_12CoreFunctionE11EEE@Base 2.0.0
 _ZTIN4zeep3xml24core_function_expressionILNS0_12CoreFunctionE12EEE@Base 2.0.0
 _ZTIN4zeep3xml24core_function_expressionILNS0_12CoreFunctionE14EEE@Base 2.0.0
 _ZTIN4zeep3xml24core_function_expressionILNS0_12CoreFunctionE15EEE@Base 2.0.0
 _ZTIN4zeep3xml24core_function_expressionILNS0_12CoreFunctionE16EEE@Base 2.0.0
 _ZTIN4zeep3xml24core_function_expressionILNS0_12CoreFunctionE17EEE@Base 2.0.0
 _ZTIN4zeep3xml24core_function_expressionILNS0_12CoreFunctionE18EEE@Base 2.0.0
 _ZTIN4zeep3xml24core_function_expressionILNS0_12CoreFunctionE19EEE@Base 2.0.0
 _ZTIN4zeep3xml24core_function_expressionILNS0_12CoreFunctionE1EEE@Base 2.0.0
 _ZTIN4zeep3xml24core_function_expressionILNS0_12CoreFunctionE20EEE@Base 2.0.0
 _ZTIN4zeep3xml24core_function_expressionILNS0_12CoreFunctionE21EEE@Base 2.0.0
 _ZTIN4zeep3xml24core_function_expressionILNS0_12CoreFunctionE22EEE@Base 2.0.0
 _ZTIN4zeep3xml24core_function_expressionILNS0_12CoreFunctionE23EEE@Base 2.0.0
 _ZTIN4zeep3xml24core_function_expressionILNS0_12CoreFunctionE24EEE@Base 2.0.0
 _ZTIN4zeep3xml24core_function_expressionILNS0_12CoreFunctionE25EEE@Base 2.0.0
 _ZTIN4zeep3xml24core_function_expressionILNS0_12CoreFunctionE26EEE@Base 2.0.0
 _ZTIN4zeep3xml24core_function_expressionILNS0_12CoreFunctionE27EEE@Base 2.0.0
 _ZTIN4zeep3xml24core_function_expressionILNS0_12CoreFunctionE2EEE@Base 2.0.0
 _ZTIN4zeep3xml24core_function_expressionILNS0_12CoreFunctionE3EEE@Base 2.0.0
 _ZTIN4zeep3xml24core_function_expressionILNS0_12CoreFunctionE4EEE@Base 2.0.0
 _ZTIN4zeep3xml24core_function_expressionILNS0_12CoreFunctionE5EEE@Base 2.0.0
 _ZTIN4zeep3xml24core_function_expressionILNS0_12CoreFunctionE6EEE@Base 2.0.0
 _ZTIN4zeep3xml24core_function_expressionILNS0_12CoreFunctionE7EEE@Base 2.0.0
 _ZTIN4zeep3xml24core_function_expressionILNS0_12CoreFunctionE8EEE@Base 2.0.0
 _ZTIN4zeep3xml24core_function_expressionILNS0_12CoreFunctionE9EEE@Base 2.0.0
 _ZTIN4zeep3xml25name_test_step_expressionE@Base 2.0.0
 _ZTIN4zeep3xml28parameter_entity_data_sourceE@Base 2.0.0
 _ZTIN4zeep3xml4nodeE@Base 2.0.0
 _ZTIN4zeep3xml4textE@Base 2.0.0
 _ZTIN4zeep3xml5TokenE@Base 2.0.0
 _ZTIN4zeep3xml5xpathE@Base 2.0.0
 _ZTIN4zeep3xml6parserE@Base 2.0.0
 _ZTIN4zeep3xml6writerE@Base 2.0.0
 _ZTIN4zeep3xml7commentE@Base 2.0.0
 _ZTIN4zeep3xml7contextE@Base 2.0.0
 _ZTIN4zeep3xml7doctype10state_baseE@Base 2.0.0
 _ZTIN4zeep3xml7doctype11allowed_anyE@Base 2.0.0
 _ZTIN4zeep3xml7doctype11allowed_seqE@Base 2.0.0
 _ZTIN4zeep3xml7doctype11state_emptyE@Base 2.0.0
 _ZTIN4zeep3xml7doctype12allowed_baseE@Base 2.0.0
 _ZTIN4zeep3xml7doctype12state_choiceE@Base 2.0.0
 _ZTIN4zeep3xml7doctype13allowed_emptyE@Base 2.0.0
 _ZTIN4zeep3xml7doctype13state_elementE@Base 2.0.0
 _ZTIN4zeep3xml7doctype14allowed_choiceE@Base 2.0.0
 _ZTIN4zeep3xml7doctype14state_repeatedE@Base 2.0.0
 _ZTIN4zeep3xml7doctype15allowed_elementE@Base 2.0.0
 _ZTIN4zeep3xml7doctype16allowed_repeatedE@Base 2.0.0
 _ZTIN4zeep3xml7doctype18state_repeated_anyE@Base 2.0.0
 _ZTIN4zeep3xml7doctype27state_repeated_zero_or_onceE@Base 2.0.0
 _ZTIN4zeep3xml7doctype28state_repeated_at_least_onceE@Base 2.0.0
 _ZTIN4zeep3xml7doctype9state_anyE@Base 2.0.0
 _ZTIN4zeep3xml7doctype9state_seqE@Base 2.0.0
 _ZTIN4zeep3xml7elementE@Base 2.0.0
 _ZTIN4zeep3xml8documentE@Base 2.0.0
 _ZTIN4zeep3xml9attributeE@Base 2.0.0
 _ZTIN4zeep3xml9containerE@Base 2.0.0
 _ZTIN4zeep3xml9root_nodeE@Base 2.0.0
 _ZTIN4zeep4http11status_typeE@Base 2.0.0
 _ZTIN4zeep4http15request_handlerE@Base 2.0.0
 _ZTIN4zeep4http21preforked_server_baseE@Base 2.0.0
 _ZTIN4zeep4http6serverE@Base 2.0.0
 _ZTIN4zeep6detail12handler_baseE@Base 2.0.0
 _ZTIN4zeep6serverE@Base 2.0.0
 _ZTIN4zeep9exceptionE@Base 2.0.0
 _ZTIN5boost10filesystem14basic_ifstreamIcSt11char_traitsIcEEE@Base 2.0.0
 _ZTIN5boost10filesystem22basic_filesystem_errorINS0_10basic_pathISsNS0_11path_traitsEEEEE@Base 2.0.0
 _ZTIN5boost10lock_errorE@Base 2.0.0
 _ZTIN5boost11bad_pointerE@Base 2.0.0
 _ZTIN5boost12bad_weak_ptrE@Base 2.0.0
 _ZTIN5boost12noncopyable_11noncopyableE@Base 2.0.0
 _ZTIN5boost16bad_lexical_castE@Base 2.0.0
 _ZTIN5boost16base_from_memberINS_10shared_ptrINS_2io18basic_altstringbufIcSt11char_traitsIcESaIcEEEEELi0EEE@Base 2.0.0
 _ZTIN5boost16exception_detail10clone_baseE@Base 2.0.0
 _ZTIN5boost16exception_detail10clone_implINS0_19error_info_injectorINS_10filesystem22basic_filesystem_errorINS3_10basic_pathISsNS3_11path_traitsEEEEEEEEE@Base 2.0.0
 _ZTIN5boost16exception_detail10clone_implINS0_19error_info_injectorINS_12bad_weak_ptrEEEEE@Base 2.0.0
 _ZTIN5boost16exception_detail10clone_implINS0_19error_info_injectorINS_16bad_lexical_castEEEEE@Base 2.0.0
 _ZTIN5boost16exception_detail10clone_implINS0_19error_info_injectorINS_17bad_function_callEEEEE@Base 2.0.0
 _ZTIN5boost16exception_detail10clone_implINS0_19error_info_injectorINS_2io12too_few_argsEEEEE@Base 2.0.0
 _ZTIN5boost16exception_detail10clone_implINS0_19error_info_injectorINS_2io13too_many_argsEEEEE@Base 2.0.0
 _ZTIN5boost16exception_detail10clone_implINS0_19error_info_injectorINS_2io17bad_format_stringEEEEE@Base 2.0.0
 _ZTIN5boost16exception_detail10clone_implINS0_19error_info_injectorINS_6system12system_errorEEEEE@Base 2.0.0
 _ZTIN5boost16exception_detail10clone_implINS0_19error_info_injectorINS_9gregorian11bad_weekdayEEEEE@Base 2.0.0
 _ZTIN5boost16exception_detail10clone_implINS0_19error_info_injectorINS_9gregorian15bad_day_of_yearEEEEE@Base 2.0.0
 _ZTIN5boost16exception_detail10clone_implINS0_19error_info_injectorINS_9gregorian16bad_day_of_monthEEEEE@Base 2.0.0
 _ZTIN5boost16exception_detail10clone_implINS0_19error_info_injectorINS_9gregorian8bad_yearEEEEE@Base 2.0.0
 _ZTIN5boost16exception_detail10clone_implINS0_19error_info_injectorINS_9gregorian9bad_monthEEEEE@Base 2.0.0
 _ZTIN5boost16exception_detail10clone_implINS0_19error_info_injectorISt12out_of_rangeEEEE@Base 2.0.0
 _ZTIN5boost16exception_detail10clone_implINS0_19error_info_injectorISt13runtime_errorEEEE@Base 2.0.0
 _ZTIN5boost16exception_detail19error_info_injectorINS_10filesystem22basic_filesystem_errorINS2_10basic_pathISsNS2_11path_traitsEEEEEEE@Base 2.0.0
 _ZTIN5boost16exception_detail19error_info_injectorINS_12bad_weak_ptrEEE@Base 2.0.0
 _ZTIN5boost16exception_detail19error_info_injectorINS_16bad_lexical_castEEE@Base 2.0.0
 _ZTIN5boost16exception_detail19error_info_injectorINS_17bad_function_callEEE@Base 2.0.0
 _ZTIN5boost16exception_detail19error_info_injectorINS_2io12too_few_argsEEE@Base 2.0.0
 _ZTIN5boost16exception_detail19error_info_injectorINS_2io13too_many_argsEEE@Base 2.0.0
 _ZTIN5boost16exception_detail19error_info_injectorINS_2io17bad_format_stringEEE@Base 2.0.0
 _ZTIN5boost16exception_detail19error_info_injectorINS_6system12system_errorEEE@Base 2.0.0
 _ZTIN5boost16exception_detail19error_info_injectorINS_9gregorian11bad_weekdayEEE@Base 2.0.0
 _ZTIN5boost16exception_detail19error_info_injectorINS_9gregorian15bad_day_of_yearEEE@Base 2.0.0
 _ZTIN5boost16exception_detail19error_info_injectorINS_9gregorian16bad_day_of_monthEEE@Base 2.0.0
 _ZTIN5boost16exception_detail19error_info_injectorINS_9gregorian8bad_yearEEE@Base 2.0.0
 _ZTIN5boost16exception_detail19error_info_injectorINS_9gregorian9bad_monthEEE@Base 2.0.0
 _ZTIN5boost16exception_detail19error_info_injectorISt12out_of_rangeEE@Base 2.0.0
 _ZTIN5boost16exception_detail19error_info_injectorISt13runtime_errorEE@Base 2.0.0
 _ZTIN5boost16thread_exceptionE@Base 2.0.0
 _ZTIN5boost17bad_function_callE@Base 2.0.0
 _ZTIN5boost18thread_interruptedE@Base 2.0.0
 _ZTIN5boost19thread_specific_ptrISt19basic_ostringstreamIcSt11char_traitsIcESaIcEEE11delete_dataE@Base 2.0.0
 _ZTIN5boost21thread_resource_errorE@Base 2.0.0
 _ZTIN5boost23enable_shared_from_thisIN4zeep3xml7doctype10state_baseEEE@Base 2.0.0
 _ZTIN5boost27bad_ptr_container_operationE@Base 2.0.0
 _ZTIN5boost2io12format_errorE@Base 2.0.0
 _ZTIN5boost2io12too_few_argsE@Base 2.0.0
 _ZTIN5boost2io13too_many_argsE@Base 2.0.0
 _ZTIN5boost2io17bad_format_stringE@Base 2.0.0
 _ZTIN5boost2io18basic_altstringbufIcSt11char_traitsIcESaIcEEE@Base 2.0.0
 _ZTIN5boost2io22basic_oaltstringstreamIcSt11char_traitsIcESaIcEE5No_OpE@Base 2.0.0
 _ZTIN5boost2io22basic_oaltstringstreamIcSt11char_traitsIcESaIcEEE@Base 2.0.0
 _ZTIN5boost3_bi6bind_tIPSiNS_4_mfi3mf3IS2_N4zeep3xml12document_impERKSsS9_S9_EENS0_5list4INS0_5valueIPNS6_17zeep_document_impEEENS_3argILi1EEENSG_ILi2EEENSG_ILi3EEEEEEE@Base 2.0.0
 _ZTIN5boost3_bi6bind_tIbNS_4_mfi3mf1IbN4zeep3xml25name_test_step_expressionEPKNS5_4nodeEEENS0_5list2INS0_5valueIPS6_EENS_3argILi1EEEEEEE@Base 2.0.0
 _ZTIN5boost3_bi6bind_tIbPFbPKN4zeep3xml4nodeEENS0_5list1INS_3argILi1EEEEEEE@Base 2.0.0
 _ZTIN5boost3_bi6bind_tIvNS_4_mfi3mf1IvN4zeep3xml17zeep_document_impERKSsEENS0_5list2INS0_5valueIPS6_EENS_3argILi1EEEEEEE@Base 2.0.0
 _ZTIN5boost3_bi6bind_tIvNS_4_mfi3mf2IvN4zeep3xml17zeep_document_impERKSsS8_EENS0_5list3INS0_5valueIPS6_EENS_3argILi1EEENSE_ILi2EEEEEEE@Base 2.0.0
 _ZTIN5boost3_bi6bind_tIvNS_4_mfi3mf3IvN4zeep3xml17zeep_document_impERKSsS8_RKSt4listINS5_6detail4attrESaISB_EEEENS0_5list4INS0_5valueIPS6_EENS_3argILi1EEENSL_ILi2EEENSL_ILi3EEEEEEE@Base 2.0.0
 _ZTIN5boost3_bi6bind_tIvNS_4_mfi3mf3IvN4zeep3xml17zeep_document_impERKSsS8_S8_EENS0_5list4INS0_5valueIPS6_EENS_3argILi1EEENSE_ILi2EEENSE_ILi3EEEEEEE@Base 2.0.0
 _ZTIN5boost4asio10io_service7serviceE@Base 2.0.0
 _ZTIN5boost4asio21stream_socket_serviceINS0_2ip3tcpEEE@Base 2.0.0
 _ZTIN5boost4asio23socket_acceptor_serviceINS0_2ip3tcpEEE@Base 2.0.0
 _ZTIN5boost4asio2ip16resolver_serviceINS1_3tcpEEE@Base 2.0.0
 _ZTIN5boost4asio5error6detail12ssl_categoryE@Base 2.0.0
 _ZTIN5boost4asio5error6detail13misc_categoryE@Base 2.0.0
 _ZTIN5boost4asio5error6detail14netdb_categoryE@Base 2.0.0
 _ZTIN5boost4asio5error6detail17addrinfo_categoryE@Base 2.0.0
 _ZTIN5boost4asio6detail12service_baseINS0_21stream_socket_serviceINS0_2ip3tcpEEEEE@Base 2.0.0
 _ZTIN5boost4asio6detail12service_baseINS0_23socket_acceptor_serviceINS0_2ip3tcpEEEEE@Base 2.0.0
 _ZTIN5boost4asio6detail12service_baseINS0_2ip16resolver_serviceINS3_3tcpEEEEE@Base 2.0.0
 _ZTIN5boost4asio6detail12service_baseINS1_13epoll_reactorILb0EEEEE@Base 2.0.0
 _ZTIN5boost4asio6detail12service_baseINS1_15task_io_serviceINS1_13epoll_reactorILb0EEEEEEE@Base 2.0.0
 _ZTIN5boost4asio6detail12service_baseINS1_16resolver_serviceINS0_2ip3tcpEEEEE@Base 2.0.0
 _ZTIN5boost4asio6detail12service_baseINS1_23reactive_socket_serviceINS0_2ip3tcpENS1_13epoll_reactorILb0EEEEEEE@Base 2.0.0
 _ZTIN5boost4asio6detail13epoll_reactorILb0EEE@Base 2.0.0
 _ZTIN5boost4asio6detail14typeid_wrapperINS0_21stream_socket_serviceINS0_2ip3tcpEEEEE@Base 2.0.0
 _ZTIN5boost4asio6detail14typeid_wrapperINS0_23socket_acceptor_serviceINS0_2ip3tcpEEEEE@Base 2.0.0
 _ZTIN5boost4asio6detail14typeid_wrapperINS0_2ip16resolver_serviceINS3_3tcpEEEEE@Base 2.0.0
 _ZTIN5boost4asio6detail14typeid_wrapperINS1_13epoll_reactorILb0EEEEE@Base 2.0.0
 _ZTIN5boost4asio6detail14typeid_wrapperINS1_15task_io_serviceINS1_13epoll_reactorILb0EEEEEEE@Base 2.0.0
 _ZTIN5boost4asio6detail14typeid_wrapperINS1_16resolver_serviceINS0_2ip3tcpEEEEE@Base 2.0.0
 _ZTIN5boost4asio6detail14typeid_wrapperINS1_23reactive_socket_serviceINS0_2ip3tcpENS1_13epoll_reactorILb0EEEEEEE@Base 2.0.0
 _ZTIN5boost4asio6detail15task_io_serviceINS1_13epoll_reactorILb0EEEEE@Base 2.0.0
 _ZTIN5boost4asio6detail16resolver_serviceINS0_2ip3tcpEE12noop_deleterE@Base 2.0.0
 _ZTIN5boost4asio6detail16resolver_serviceINS0_2ip3tcpEEE@Base 2.0.0
 _ZTIN5boost4asio6detail23reactive_socket_serviceINS0_2ip3tcpENS1_13epoll_reactorILb0EEEEE@Base 2.0.0
 _ZTIN5boost6detail11thread_dataINS_3_bi6bind_tImNS_4_mfi3mf0ImNS_4asio10io_serviceEEENS2_5list1INS2_5valueIPS7_EEEEEEEE@Base 2.0.0
 _ZTIN5boost6detail11thread_dataINS_3_bi6bind_tIvNS_4_mfi3mf0IvN4zeep4http6serverEEENS2_5list1INS2_5valueIPS8_EEEEEEEE@Base 2.0.0
 _ZTIN5boost6detail14do_heap_deleteINS_19thread_specific_ptrISt19basic_ostringstreamIcSt11char_traitsIcESaIcEEE11delete_dataEEE@Base 2.0.0
 _ZTIN5boost6detail15sp_counted_baseE@Base 2.0.0
 _ZTIN5boost6detail17sp_counted_impl_pIN4zeep3xml15path_expressionEEE@Base 2.0.0
 _ZTIN5boost6detail17sp_counted_impl_pIN4zeep3xml15root_expressionEEE@Base 2.0.0
 _ZTIN5boost6detail17sp_counted_impl_pIN4zeep3xml16union_expressionEEE@Base 2.0.0
 _ZTIN5boost6detail17sp_counted_impl_pIN4zeep3xml17negate_expressionEEE@Base 2.0.0
 _ZTIN5boost6detail17sp_counted_impl_pIN4zeep3xml17number_expressionEEE@Base 2.0.0
 _ZTIN5boost6detail17sp_counted_impl_pIN4zeep3xml18literal_expressionEEE@Base 2.0.0
 _ZTIN5boost6detail17sp_counted_impl_pIN4zeep3xml19operator_expressionILNS3_5TokenE269EEEEE@Base 2.0.0
 _ZTIN5boost6detail17sp_counted_impl_pIN4zeep3xml19operator_expressionILNS3_5TokenE270EEEEE@Base 2.0.0
 _ZTIN5boost6detail17sp_counted_impl_pIN4zeep3xml19operator_expressionILNS3_5TokenE271EEEEE@Base 2.0.0
 _ZTIN5boost6detail17sp_counted_impl_pIN4zeep3xml19operator_expressionILNS3_5TokenE272EEEEE@Base 2.0.0
 _ZTIN5boost6detail17sp_counted_impl_pIN4zeep3xml19operator_expressionILNS3_5TokenE273EEEEE@Base 2.0.0
 _ZTIN5boost6detail17sp_counted_impl_pIN4zeep3xml19operator_expressionILNS3_5TokenE274EEEEE@Base 2.0.0
 _ZTIN5boost6detail17sp_counted_impl_pIN4zeep3xml19operator_expressionILNS3_5TokenE275EEEEE@Base 2.0.0
 _ZTIN5boost6detail17sp_counted_impl_pIN4zeep3xml19operator_expressionILNS3_5TokenE276EEEEE@Base 2.0.0
 _ZTIN5boost6detail17sp_counted_impl_pIN4zeep3xml19operator_expressionILNS3_5TokenE277EEEEE@Base 2.0.0
 _ZTIN5boost6detail17sp_counted_impl_pIN4zeep3xml19operator_expressionILNS3_5TokenE278EEEEE@Base 2.0.0
 _ZTIN5boost6detail17sp_counted_impl_pIN4zeep3xml19operator_expressionILNS3_5TokenE279EEEEE@Base 2.0.0
 _ZTIN5boost6detail17sp_counted_impl_pIN4zeep3xml19operator_expressionILNS3_5TokenE280EEEEE@Base 2.0.0
 _ZTIN5boost6detail17sp_counted_impl_pIN4zeep3xml19variable_expressionEEE@Base 2.0.0
 _ZTIN5boost6detail17sp_counted_impl_pIN4zeep3xml20node_type_expressionINS3_22processing_instructionEEEEE@Base 2.0.0
 _ZTIN5boost6detail17sp_counted_impl_pIN4zeep3xml20node_type_expressionINS3_4nodeEEEEE@Base 2.0.0
 _ZTIN5boost6detail17sp_counted_impl_pIN4zeep3xml20node_type_expressionINS3_4textEEEEE@Base 2.0.0
 _ZTIN5boost6detail17sp_counted_impl_pIN4zeep3xml20node_type_expressionINS3_7commentEEEEE@Base 2.0.0
 _ZTIN5boost6detail17sp_counted_impl_pIN4zeep3xml20predicate_expressionEEE@Base 2.0.0
 _ZTIN5boost6detail17sp_counted_impl_pIN4zeep3xml24core_function_expressionILNS3_12CoreFunctionE0EEEEE@Base 2.0.0
 _ZTIN5boost6detail17sp_counted_impl_pIN4zeep3xml24core_function_expressionILNS3_12CoreFunctionE10EEEEE@Base 2.0.0
 _ZTIN5boost6detail17sp_counted_impl_pIN4zeep3xml24core_function_expressionILNS3_12CoreFunctionE11EEEEE@Base 2.0.0
 _ZTIN5boost6detail17sp_counted_impl_pIN4zeep3xml24core_function_expressionILNS3_12CoreFunctionE12EEEEE@Base 2.0.0
 _ZTIN5boost6detail17sp_counted_impl_pIN4zeep3xml24core_function_expressionILNS3_12CoreFunctionE14EEEEE@Base 2.0.0
 _ZTIN5boost6detail17sp_counted_impl_pIN4zeep3xml24core_function_expressionILNS3_12CoreFunctionE15EEEEE@Base 2.0.0
 _ZTIN5boost6detail17sp_counted_impl_pIN4zeep3xml24core_function_expressionILNS3_12CoreFunctionE16EEEEE@Base 2.0.0
 _ZTIN5boost6detail17sp_counted_impl_pIN4zeep3xml24core_function_expressionILNS3_12CoreFunctionE17EEEEE@Base 2.0.0
 _ZTIN5boost6detail17sp_counted_impl_pIN4zeep3xml24core_function_expressionILNS3_12CoreFunctionE18EEEEE@Base 2.0.0
 _ZTIN5boost6detail17sp_counted_impl_pIN4zeep3xml24core_function_expressionILNS3_12CoreFunctionE19EEEEE@Base 2.0.0
 _ZTIN5boost6detail17sp_counted_impl_pIN4zeep3xml24core_function_expressionILNS3_12CoreFunctionE1EEEEE@Base 2.0.0
 _ZTIN5boost6detail17sp_counted_impl_pIN4zeep3xml24core_function_expressionILNS3_12CoreFunctionE20EEEEE@Base 2.0.0
 _ZTIN5boost6detail17sp_counted_impl_pIN4zeep3xml24core_function_expressionILNS3_12CoreFunctionE21EEEEE@Base 2.0.0
 _ZTIN5boost6detail17sp_counted_impl_pIN4zeep3xml24core_function_expressionILNS3_12CoreFunctionE22EEEEE@Base 2.0.0
 _ZTIN5boost6detail17sp_counted_impl_pIN4zeep3xml24core_function_expressionILNS3_12CoreFunctionE23EEEEE@Base 2.0.0
 _ZTIN5boost6detail17sp_counted_impl_pIN4zeep3xml24core_function_expressionILNS3_12CoreFunctionE24EEEEE@Base 2.0.0
 _ZTIN5boost6detail17sp_counted_impl_pIN4zeep3xml24core_function_expressionILNS3_12CoreFunctionE25EEEEE@Base 2.0.0
 _ZTIN5boost6detail17sp_counted_impl_pIN4zeep3xml24core_function_expressionILNS3_12CoreFunctionE26EEEEE@Base 2.0.0
 _ZTIN5boost6detail17sp_counted_impl_pIN4zeep3xml24core_function_expressionILNS3_12CoreFunctionE27EEEEE@Base 2.0.0
 _ZTIN5boost6detail17sp_counted_impl_pIN4zeep3xml24core_function_expressionILNS3_12CoreFunctionE2EEEEE@Base 2.0.0
 _ZTIN5boost6detail17sp_counted_impl_pIN4zeep3xml24core_function_expressionILNS3_12CoreFunctionE3EEEEE@Base 2.0.0
 _ZTIN5boost6detail17sp_counted_impl_pIN4zeep3xml24core_function_expressionILNS3_12CoreFunctionE4EEEEE@Base 2.0.0
 _ZTIN5boost6detail17sp_counted_impl_pIN4zeep3xml24core_function_expressionILNS3_12CoreFunctionE5EEEEE@Base 2.0.0
 _ZTIN5boost6detail17sp_counted_impl_pIN4zeep3xml24core_function_expressionILNS3_12CoreFunctionE6EEEEE@Base 2.0.0
 _ZTIN5boost6detail17sp_counted_impl_pIN4zeep3xml24core_function_expressionILNS3_12CoreFunctionE7EEEEE@Base 2.0.0
 _ZTIN5boost6detail17sp_counted_impl_pIN4zeep3xml24core_function_expressionILNS3_12CoreFunctionE8EEEEE@Base 2.0.0
 _ZTIN5boost6detail17sp_counted_impl_pIN4zeep3xml24core_function_expressionILNS3_12CoreFunctionE9EEEEE@Base 2.0.0
 _ZTIN5boost6detail17sp_counted_impl_pIN4zeep3xml25name_test_step_expressionEEE@Base 2.0.0
 _ZTIN5boost6detail17sp_counted_impl_pIN4zeep4http10connectionEEE@Base 2.0.0
 _ZTIN5boost6detail17sp_counted_impl_pINS0_11thread_dataINS_3_bi6bind_tImNS_4_mfi3mf0ImNS_4asio10io_serviceEEENS3_5list1INS3_5valueIPS8_EEEEEEEEEE@Base 2.0.0
 _ZTIN5boost6detail17sp_counted_impl_pINS0_11thread_dataINS_3_bi6bind_tIvNS_4_mfi3mf0IvN4zeep4http6serverEEENS3_5list1INS3_5valueIPS9_EEEEEEEEEE@Base 2.0.0
 _ZTIN5boost6detail17sp_counted_impl_pINS_10filesystem22basic_filesystem_errorINS2_10basic_pathISsNS2_11path_traitsEEEE5m_impEEE@Base 2.0.0
 _ZTIN5boost6detail17sp_counted_impl_pINS_4asio21basic_socket_acceptorINS2_2ip3tcpENS2_23socket_acceptor_serviceIS5_EEEEEE@Base 2.0.0
 _ZTIN5boost6detail17sp_counted_impl_pISt6vectorINS_4asio2ip20basic_resolver_entryINS4_3tcpEEESaIS7_EEEE@Base 2.0.0
 _ZTIN5boost6detail18sp_counted_impl_pdIPNS_19thread_specific_ptrISt19basic_ostringstreamIcSt11char_traitsIcESaIcEEE11delete_dataENS0_14do_heap_deleteIS9_EEEE@Base 2.0.0
 _ZTIN5boost6detail18sp_counted_impl_pdIPNS_2io18basic_altstringbufIcSt11char_traitsIcESaIcEEENS2_22basic_oaltstringstreamIcS5_S6_E5No_OpEEE@Base 2.0.0
 _ZTIN5boost6detail18sp_counted_impl_pdIPvNS_4asio6detail16resolver_serviceINS3_2ip3tcpEE12noop_deleterEEE@Base 2.0.0
 _ZTIN5boost6detail20tss_cleanup_functionE@Base 2.0.0
 _ZTIN5boost6detail26lexical_stream_limited_srcIcSt15basic_streambufIcSt11char_traitsIcEES4_EE@Base 2.0.0
 _ZTIN5boost6system12system_errorE@Base 2.0.0
 _ZTIN5boost6system14error_categoryE@Base 2.0.0
 _ZTIN5boost9algorithm6detail13token_finderFINS1_10is_any_ofFIcEEEE@Base 2.0.0
 _ZTIN5boost9date_time10date_facetINS_9gregorian4dateEcSt19ostreambuf_iteratorIcSt11char_traitsIcEEEE@Base 2.0.0
 _ZTIN5boost9date_time10time_facetINS_10posix_time5ptimeEcSt19ostreambuf_iteratorIcSt11char_traitsIcEEEE@Base 2.0.0
 _ZTIN5boost9exceptionE@Base 2.0.0
 _ZTIN5boost9gregorian11bad_weekdayE@Base 2.0.0
 _ZTIN5boost9gregorian15bad_day_of_yearE@Base 2.0.0
 _ZTIN5boost9gregorian16bad_day_of_monthE@Base 2.0.0
 _ZTIN5boost9gregorian8bad_yearE@Base 2.0.0
 _ZTIN5boost9gregorian9bad_monthE@Base 2.0.0
 _ZTIPKN4zeep3xml4nodeE@Base 2.0.0
 _ZTISs@Base 2.0.0
 _ZTISt12out_of_range@Base 2.0.0
 _ZTSN4zeep10dispatcherE@Base 2.0.0
 _ZTSN4zeep3xml10expressionE@Base 2.0.0
 _ZTSN4zeep3xml10name_spaceE@Base 2.0.0
 _ZTSN4zeep3xml11context_impE@Base 2.0.0
 _ZTSN4zeep3xml11data_sourceE@Base 2.0.0
 _ZTSN4zeep3xml12CoreFunctionE@Base 2.0.0
 _ZTSN4zeep3xml12document_impE@Base 2.0.0
 _ZTSN4zeep3xml15path_expressionE@Base 2.0.0
 _ZTSN4zeep3xml15root_expressionE@Base 2.0.0
 _ZTSN4zeep3xml15step_expressionE@Base 2.0.0
 _ZTSN4zeep3xml16not_wf_exceptionE@Base 2.0.0
 _ZTSN4zeep3xml16source_exceptionE@Base 2.0.0
 _ZTSN4zeep3xml16union_expressionE@Base 2.0.0
 _ZTSN4zeep3xml17invalid_exceptionE@Base 2.0.0
 _ZTSN4zeep3xml17negate_expressionE@Base 2.0.0
 _ZTSN4zeep3xml17number_expressionE@Base 2.0.0
 _ZTSN4zeep3xml17zeep_document_impE@Base 2.0.0
 _ZTSN4zeep3xml18entity_data_sourceE@Base 2.0.0
 _ZTSN4zeep3xml18expression_contextE@Base 2.0.0
 _ZTSN4zeep3xml18literal_expressionE@Base 2.0.0
 _ZTSN4zeep3xml18string_data_sourceE@Base 2.0.0
 _ZTSN4zeep3xml19istream_data_sourceE@Base 2.0.0
 _ZTSN4zeep3xml19operator_expressionILNS0_5TokenE269EEE@Base 2.0.0
 _ZTSN4zeep3xml19operator_expressionILNS0_5TokenE270EEE@Base 2.0.0
 _ZTSN4zeep3xml19operator_expressionILNS0_5TokenE271EEE@Base 2.0.0
 _ZTSN4zeep3xml19operator_expressionILNS0_5TokenE272EEE@Base 2.0.0
 _ZTSN4zeep3xml19operator_expressionILNS0_5TokenE273EEE@Base 2.0.0
 _ZTSN4zeep3xml19operator_expressionILNS0_5TokenE274EEE@Base 2.0.0
 _ZTSN4zeep3xml19operator_expressionILNS0_5TokenE275EEE@Base 2.0.0
 _ZTSN4zeep3xml19operator_expressionILNS0_5TokenE276EEE@Base 2.0.0
 _ZTSN4zeep3xml19operator_expressionILNS0_5TokenE277EEE@Base 2.0.0
 _ZTSN4zeep3xml19operator_expressionILNS0_5TokenE278EEE@Base 2.0.0
 _ZTSN4zeep3xml19operator_expressionILNS0_5TokenE279EEE@Base 2.0.0
 _ZTSN4zeep3xml19operator_expressionILNS0_5TokenE280EEE@Base 2.0.0
 _ZTSN4zeep3xml19variable_expressionE@Base 2.0.0
 _ZTSN4zeep3xml20node_type_expressionINS0_22processing_instructionEEE@Base 2.0.0
 _ZTSN4zeep3xml20node_type_expressionINS0_4nodeEEE@Base 2.0.0
 _ZTSN4zeep3xml20node_type_expressionINS0_4textEEE@Base 2.0.0
 _ZTSN4zeep3xml20node_type_expressionINS0_7commentEEE@Base 2.0.0
 _ZTSN4zeep3xml20predicate_expressionE@Base 2.0.0
 _ZTSN4zeep3xml22processing_instructionE@Base 2.0.0
 _ZTSN4zeep3xml24core_function_expressionILNS0_12CoreFunctionE0EEE@Base 2.0.0
 _ZTSN4zeep3xml24core_function_expressionILNS0_12CoreFunctionE10EEE@Base 2.0.0
 _ZTSN4zeep3xml24core_function_expressionILNS0_12CoreFunctionE11EEE@Base 2.0.0
 _ZTSN4zeep3xml24core_function_expressionILNS0_12CoreFunctionE12EEE@Base 2.0.0
 _ZTSN4zeep3xml24core_function_expressionILNS0_12CoreFunctionE14EEE@Base 2.0.0
 _ZTSN4zeep3xml24core_function_expressionILNS0_12CoreFunctionE15EEE@Base 2.0.0
 _ZTSN4zeep3xml24core_function_expressionILNS0_12CoreFunctionE16EEE@Base 2.0.0
 _ZTSN4zeep3xml24core_function_expressionILNS0_12CoreFunctionE17EEE@Base 2.0.0
 _ZTSN4zeep3xml24core_function_expressionILNS0_12CoreFunctionE18EEE@Base 2.0.0
 _ZTSN4zeep3xml24core_function_expressionILNS0_12CoreFunctionE19EEE@Base 2.0.0
 _ZTSN4zeep3xml24core_function_expressionILNS0_12CoreFunctionE1EEE@Base 2.0.0
 _ZTSN4zeep3xml24core_function_expressionILNS0_12CoreFunctionE20EEE@Base 2.0.0
 _ZTSN4zeep3xml24core_function_expressionILNS0_12CoreFunctionE21EEE@Base 2.0.0
 _ZTSN4zeep3xml24core_function_expressionILNS0_12CoreFunctionE22EEE@Base 2.0.0
 _ZTSN4zeep3xml24core_function_expressionILNS0_12CoreFunctionE23EEE@Base 2.0.0
 _ZTSN4zeep3xml24core_function_expressionILNS0_12CoreFunctionE24EEE@Base 2.0.0
 _ZTSN4zeep3xml24core_function_expressionILNS0_12CoreFunctionE25EEE@Base 2.0.0
 _ZTSN4zeep3xml24core_function_expressionILNS0_12CoreFunctionE26EEE@Base 2.0.0
 _ZTSN4zeep3xml24core_function_expressionILNS0_12CoreFunctionE27EEE@Base 2.0.0
 _ZTSN4zeep3xml24core_function_expressionILNS0_12CoreFunctionE2EEE@Base 2.0.0
 _ZTSN4zeep3xml24core_function_expressionILNS0_12CoreFunctionE3EEE@Base 2.0.0
 _ZTSN4zeep3xml24core_function_expressionILNS0_12CoreFunctionE4EEE@Base 2.0.0
 _ZTSN4zeep3xml24core_function_expressionILNS0_12CoreFunctionE5EEE@Base 2.0.0
 _ZTSN4zeep3xml24core_function_expressionILNS0_12CoreFunctionE6EEE@Base 2.0.0
 _ZTSN4zeep3xml24core_function_expressionILNS0_12CoreFunctionE7EEE@Base 2.0.0
 _ZTSN4zeep3xml24core_function_expressionILNS0_12CoreFunctionE8EEE@Base 2.0.0
 _ZTSN4zeep3xml24core_function_expressionILNS0_12CoreFunctionE9EEE@Base 2.0.0
 _ZTSN4zeep3xml25name_test_step_expressionE@Base 2.0.0
 _ZTSN4zeep3xml28parameter_entity_data_sourceE@Base 2.0.0
 _ZTSN4zeep3xml4nodeE@Base 2.0.0
 _ZTSN4zeep3xml4textE@Base 2.0.0
 _ZTSN4zeep3xml5TokenE@Base 2.0.0
 _ZTSN4zeep3xml5xpathE@Base 2.0.0
 _ZTSN4zeep3xml6parserE@Base 2.0.0
 _ZTSN4zeep3xml6writerE@Base 2.0.0
 _ZTSN4zeep3xml7commentE@Base 2.0.0
 _ZTSN4zeep3xml7contextE@Base 2.0.0
 _ZTSN4zeep3xml7doctype10state_baseE@Base 2.0.0
 _ZTSN4zeep3xml7doctype11allowed_anyE@Base 2.0.0
 _ZTSN4zeep3xml7doctype11allowed_seqE@Base 2.0.0
 _ZTSN4zeep3xml7doctype11state_emptyE@Base 2.0.0
 _ZTSN4zeep3xml7doctype12allowed_baseE@Base 2.0.0
 _ZTSN4zeep3xml7doctype12state_choiceE@Base 2.0.0
 _ZTSN4zeep3xml7doctype13allowed_emptyE@Base 2.0.0
 _ZTSN4zeep3xml7doctype13state_elementE@Base 2.0.0
 _ZTSN4zeep3xml7doctype14allowed_choiceE@Base 2.0.0
 _ZTSN4zeep3xml7doctype14state_repeatedE@Base 2.0.0
 _ZTSN4zeep3xml7doctype15allowed_elementE@Base 2.0.0
 _ZTSN4zeep3xml7doctype16allowed_repeatedE@Base 2.0.0
 _ZTSN4zeep3xml7doctype18state_repeated_anyE@Base 2.0.0
 _ZTSN4zeep3xml7doctype27state_repeated_zero_or_onceE@Base 2.0.0
 _ZTSN4zeep3xml7doctype28state_repeated_at_least_onceE@Base 2.0.0
 _ZTSN4zeep3xml7doctype9state_anyE@Base 2.0.0
 _ZTSN4zeep3xml7doctype9state_seqE@Base 2.0.0
 _ZTSN4zeep3xml7elementE@Base 2.0.0
 _ZTSN4zeep3xml8documentE@Base 2.0.0
 _ZTSN4zeep3xml9attributeE@Base 2.0.0
 _ZTSN4zeep3xml9containerE@Base 2.0.0
 _ZTSN4zeep3xml9root_nodeE@Base 2.0.0
 _ZTSN4zeep4http11status_typeE@Base 2.0.0
 _ZTSN4zeep4http15request_handlerE@Base 2.0.0
 _ZTSN4zeep4http21preforked_server_baseE@Base 2.0.0
 _ZTSN4zeep4http6serverE@Base 2.0.0
 _ZTSN4zeep6detail12handler_baseE@Base 2.0.0
 _ZTSN4zeep6serverE@Base 2.0.0
 _ZTSN4zeep9exceptionE@Base 2.0.0
 _ZTSN5boost10filesystem14basic_ifstreamIcSt11char_traitsIcEEE@Base 2.0.0
 _ZTSN5boost10filesystem22basic_filesystem_errorINS0_10basic_pathISsNS0_11path_traitsEEEEE@Base 2.0.0
 _ZTSN5boost10lock_errorE@Base 2.0.0
 _ZTSN5boost11bad_pointerE@Base 2.0.0
 _ZTSN5boost12bad_weak_ptrE@Base 2.0.0
 _ZTSN5boost12noncopyable_11noncopyableE@Base 2.0.0
 _ZTSN5boost16bad_lexical_castE@Base 2.0.0
 _ZTSN5boost16base_from_memberINS_10shared_ptrINS_2io18basic_altstringbufIcSt11char_traitsIcESaIcEEEEELi0EEE@Base 2.0.0
 _ZTSN5boost16exception_detail10clone_baseE@Base 2.0.0
 _ZTSN5boost16exception_detail10clone_implINS0_19error_info_injectorINS_10filesystem22basic_filesystem_errorINS3_10basic_pathISsNS3_11path_traitsEEEEEEEEE@Base 2.0.0
 _ZTSN5boost16exception_detail10clone_implINS0_19error_info_injectorINS_12bad_weak_ptrEEEEE@Base 2.0.0
 _ZTSN5boost16exception_detail10clone_implINS0_19error_info_injectorINS_16bad_lexical_castEEEEE@Base 2.0.0
 _ZTSN5boost16exception_detail10clone_implINS0_19error_info_injectorINS_17bad_function_callEEEEE@Base 2.0.0
 _ZTSN5boost16exception_detail10clone_implINS0_19error_info_injectorINS_2io12too_few_argsEEEEE@Base 2.0.0
 _ZTSN5boost16exception_detail10clone_implINS0_19error_info_injectorINS_2io13too_many_argsEEEEE@Base 2.0.0
 _ZTSN5boost16exception_detail10clone_implINS0_19error_info_injectorINS_2io17bad_format_stringEEEEE@Base 2.0.0
 _ZTSN5boost16exception_detail10clone_implINS0_19error_info_injectorINS_6system12system_errorEEEEE@Base 2.0.0
 _ZTSN5boost16exception_detail10clone_implINS0_19error_info_injectorINS_9gregorian11bad_weekdayEEEEE@Base 2.0.0
 _ZTSN5boost16exception_detail10clone_implINS0_19error_info_injectorINS_9gregorian15bad_day_of_yearEEEEE@Base 2.0.0
 _ZTSN5boost16exception_detail10clone_implINS0_19error_info_injectorINS_9gregorian16bad_day_of_monthEEEEE@Base 2.0.0
 _ZTSN5boost16exception_detail10clone_implINS0_19error_info_injectorINS_9gregorian8bad_yearEEEEE@Base 2.0.0
 _ZTSN5boost16exception_detail10clone_implINS0_19error_info_injectorINS_9gregorian9bad_monthEEEEE@Base 2.0.0
 _ZTSN5boost16exception_detail10clone_implINS0_19error_info_injectorISt12out_of_rangeEEEE@Base 2.0.0
 _ZTSN5boost16exception_detail10clone_implINS0_19error_info_injectorISt13runtime_errorEEEE@Base 2.0.0
 _ZTSN5boost16exception_detail19error_info_injectorINS_10filesystem22basic_filesystem_errorINS2_10basic_pathISsNS2_11path_traitsEEEEEEE@Base 2.0.0
 _ZTSN5boost16exception_detail19error_info_injectorINS_12bad_weak_ptrEEE@Base 2.0.0
 _ZTSN5boost16exception_detail19error_info_injectorINS_16bad_lexical_castEEE@Base 2.0.0
 _ZTSN5boost16exception_detail19error_info_injectorINS_17bad_function_callEEE@Base 2.0.0
 _ZTSN5boost16exception_detail19error_info_injectorINS_2io12too_few_argsEEE@Base 2.0.0
 _ZTSN5boost16exception_detail19error_info_injectorINS_2io13too_many_argsEEE@Base 2.0.0
 _ZTSN5boost16exception_detail19error_info_injectorINS_2io17bad_format_stringEEE@Base 2.0.0
 _ZTSN5boost16exception_detail19error_info_injectorINS_6system12system_errorEEE@Base 2.0.0
 _ZTSN5boost16exception_detail19error_info_injectorINS_9gregorian11bad_weekdayEEE@Base 2.0.0
 _ZTSN5boost16exception_detail19error_info_injectorINS_9gregorian15bad_day_of_yearEEE@Base 2.0.0
 _ZTSN5boost16exception_detail19error_info_injectorINS_9gregorian16bad_day_of_monthEEE@Base 2.0.0
 _ZTSN5boost16exception_detail19error_info_injectorINS_9gregorian8bad_yearEEE@Base 2.0.0
 _ZTSN5boost16exception_detail19error_info_injectorINS_9gregorian9bad_monthEEE@Base 2.0.0
 _ZTSN5boost16exception_detail19error_info_injectorISt12out_of_rangeEE@Base 2.0.0
 _ZTSN5boost16exception_detail19error_info_injectorISt13runtime_errorEE@Base 2.0.0
 _ZTSN5boost16thread_exceptionE@Base 2.0.0
 _ZTSN5boost17bad_function_callE@Base 2.0.0
 _ZTSN5boost18thread_interruptedE@Base 2.0.0
 _ZTSN5boost19thread_specific_ptrISt19basic_ostringstreamIcSt11char_traitsIcESaIcEEE11delete_dataE@Base 2.0.0
 _ZTSN5boost21thread_resource_errorE@Base 2.0.0
 _ZTSN5boost23enable_shared_from_thisIN4zeep3xml7doctype10state_baseEEE@Base 2.0.0
 _ZTSN5boost27bad_ptr_container_operationE@Base 2.0.0
 _ZTSN5boost2io12format_errorE@Base 2.0.0
 _ZTSN5boost2io12too_few_argsE@Base 2.0.0
 _ZTSN5boost2io13too_many_argsE@Base 2.0.0
 _ZTSN5boost2io17bad_format_stringE@Base 2.0.0
 _ZTSN5boost2io18basic_altstringbufIcSt11char_traitsIcESaIcEEE@Base 2.0.0
 _ZTSN5boost2io22basic_oaltstringstreamIcSt11char_traitsIcESaIcEE5No_OpE@Base 2.0.0
 _ZTSN5boost2io22basic_oaltstringstreamIcSt11char_traitsIcESaIcEEE@Base 2.0.0
 _ZTSN5boost3_bi6bind_tIPSiNS_4_mfi3mf3IS2_N4zeep3xml12document_impERKSsS9_S9_EENS0_5list4INS0_5valueIPNS6_17zeep_document_impEEENS_3argILi1EEENSG_ILi2EEENSG_ILi3EEEEEEE@Base 2.0.0
 _ZTSN5boost3_bi6bind_tIbNS_4_mfi3mf1IbN4zeep3xml25name_test_step_expressionEPKNS5_4nodeEEENS0_5list2INS0_5valueIPS6_EENS_3argILi1EEEEEEE@Base 2.0.0
 _ZTSN5boost3_bi6bind_tIbPFbPKN4zeep3xml4nodeEENS0_5list1INS_3argILi1EEEEEEE@Base 2.0.0
 _ZTSN5boost3_bi6bind_tIvNS_4_mfi3mf1IvN4zeep3xml17zeep_document_impERKSsEENS0_5list2INS0_5valueIPS6_EENS_3argILi1EEEEEEE@Base 2.0.0
 _ZTSN5boost3_bi6bind_tIvNS_4_mfi3mf2IvN4zeep3xml17zeep_document_impERKSsS8_EENS0_5list3INS0_5valueIPS6_EENS_3argILi1EEENSE_ILi2EEEEEEE@Base 2.0.0
 _ZTSN5boost3_bi6bind_tIvNS_4_mfi3mf3IvN4zeep3xml17zeep_document_impERKSsS8_RKSt4listINS5_6detail4attrESaISB_EEEENS0_5list4INS0_5valueIPS6_EENS_3argILi1EEENSL_ILi2EEENSL_ILi3EEEEEEE@Base 2.0.0
 _ZTSN5boost3_bi6bind_tIvNS_4_mfi3mf3IvN4zeep3xml17zeep_document_impERKSsS8_S8_EENS0_5list4INS0_5valueIPS6_EENS_3argILi1EEENSE_ILi2EEENSE_ILi3EEEEEEE@Base 2.0.0
 _ZTSN5boost4asio10io_service7serviceE@Base 2.0.0
 _ZTSN5boost4asio21stream_socket_serviceINS0_2ip3tcpEEE@Base 2.0.0
 _ZTSN5boost4asio23socket_acceptor_serviceINS0_2ip3tcpEEE@Base 2.0.0
 _ZTSN5boost4asio2ip16resolver_serviceINS1_3tcpEEE@Base 2.0.0
 _ZTSN5boost4asio5error6detail12ssl_categoryE@Base 2.0.0
 _ZTSN5boost4asio5error6detail13misc_categoryE@Base 2.0.0
 _ZTSN5boost4asio5error6detail14netdb_categoryE@Base 2.0.0
 _ZTSN5boost4asio5error6detail17addrinfo_categoryE@Base 2.0.0
 _ZTSN5boost4asio6detail12service_baseINS0_21stream_socket_serviceINS0_2ip3tcpEEEEE@Base 2.0.0
 _ZTSN5boost4asio6detail12service_baseINS0_23socket_acceptor_serviceINS0_2ip3tcpEEEEE@Base 2.0.0
 _ZTSN5boost4asio6detail12service_baseINS0_2ip16resolver_serviceINS3_3tcpEEEEE@Base 2.0.0
 _ZTSN5boost4asio6detail12service_baseINS1_13epoll_reactorILb0EEEEE@Base 2.0.0
 _ZTSN5boost4asio6detail12service_baseINS1_15task_io_serviceINS1_13epoll_reactorILb0EEEEEEE@Base 2.0.0
 _ZTSN5boost4asio6detail12service_baseINS1_16resolver_serviceINS0_2ip3tcpEEEEE@Base 2.0.0
 _ZTSN5boost4asio6detail12service_baseINS1_23reactive_socket_serviceINS0_2ip3tcpENS1_13epoll_reactorILb0EEEEEEE@Base 2.0.0
 _ZTSN5boost4asio6detail13epoll_reactorILb0EEE@Base 2.0.0
 _ZTSN5boost4asio6detail14typeid_wrapperINS0_21stream_socket_serviceINS0_2ip3tcpEEEEE@Base 2.0.0
 _ZTSN5boost4asio6detail14typeid_wrapperINS0_23socket_acceptor_serviceINS0_2ip3tcpEEEEE@Base 2.0.0
 _ZTSN5boost4asio6detail14typeid_wrapperINS0_2ip16resolver_serviceINS3_3tcpEEEEE@Base 2.0.0
 _ZTSN5boost4asio6detail14typeid_wrapperINS1_13epoll_reactorILb0EEEEE@Base 2.0.0
 _ZTSN5boost4asio6detail14typeid_wrapperINS1_15task_io_serviceINS1_13epoll_reactorILb0EEEEEEE@Base 2.0.0
 _ZTSN5boost4asio6detail14typeid_wrapperINS1_16resolver_serviceINS0_2ip3tcpEEEEE@Base 2.0.0
 _ZTSN5boost4asio6detail14typeid_wrapperINS1_23reactive_socket_serviceINS0_2ip3tcpENS1_13epoll_reactorILb0EEEEEEE@Base 2.0.0
 _ZTSN5boost4asio6detail15task_io_serviceINS1_13epoll_reactorILb0EEEEE@Base 2.0.0
 _ZTSN5boost4asio6detail16resolver_serviceINS0_2ip3tcpEE12noop_deleterE@Base 2.0.0
 _ZTSN5boost4asio6detail16resolver_serviceINS0_2ip3tcpEEE@Base 2.0.0
 _ZTSN5boost4asio6detail23reactive_socket_serviceINS0_2ip3tcpENS1_13epoll_reactorILb0EEEEE@Base 2.0.0
 _ZTSN5boost6detail11thread_dataINS_3_bi6bind_tImNS_4_mfi3mf0ImNS_4asio10io_serviceEEENS2_5list1INS2_5valueIPS7_EEEEEEEE@Base 2.0.0
 _ZTSN5boost6detail11thread_dataINS_3_bi6bind_tIvNS_4_mfi3mf0IvN4zeep4http6serverEEENS2_5list1INS2_5valueIPS8_EEEEEEEE@Base 2.0.0
 _ZTSN5boost6detail14do_heap_deleteINS_19thread_specific_ptrISt19basic_ostringstreamIcSt11char_traitsIcESaIcEEE11delete_dataEEE@Base 2.0.0
 _ZTSN5boost6detail15sp_counted_baseE@Base 2.0.0
 _ZTSN5boost6detail17sp_counted_impl_pIN4zeep3xml15path_expressionEEE@Base 2.0.0
 _ZTSN5boost6detail17sp_counted_impl_pIN4zeep3xml15root_expressionEEE@Base 2.0.0
 _ZTSN5boost6detail17sp_counted_impl_pIN4zeep3xml16union_expressionEEE@Base 2.0.0
 _ZTSN5boost6detail17sp_counted_impl_pIN4zeep3xml17negate_expressionEEE@Base 2.0.0
 _ZTSN5boost6detail17sp_counted_impl_pIN4zeep3xml17number_expressionEEE@Base 2.0.0
 _ZTSN5boost6detail17sp_counted_impl_pIN4zeep3xml18literal_expressionEEE@Base 2.0.0
 _ZTSN5boost6detail17sp_counted_impl_pIN4zeep3xml19operator_expressionILNS3_5TokenE269EEEEE@Base 2.0.0
 _ZTSN5boost6detail17sp_counted_impl_pIN4zeep3xml19operator_expressionILNS3_5TokenE270EEEEE@Base 2.0.0
 _ZTSN5boost6detail17sp_counted_impl_pIN4zeep3xml19operator_expressionILNS3_5TokenE271EEEEE@Base 2.0.0
 _ZTSN5boost6detail17sp_counted_impl_pIN4zeep3xml19operator_expressionILNS3_5TokenE272EEEEE@Base 2.0.0
 _ZTSN5boost6detail17sp_counted_impl_pIN4zeep3xml19operator_expressionILNS3_5TokenE273EEEEE@Base 2.0.0
 _ZTSN5boost6detail17sp_counted_impl_pIN4zeep3xml19operator_expressionILNS3_5TokenE274EEEEE@Base 2.0.0
 _ZTSN5boost6detail17sp_counted_impl_pIN4zeep3xml19operator_expressionILNS3_5TokenE275EEEEE@Base 2.0.0
 _ZTSN5boost6detail17sp_counted_impl_pIN4zeep3xml19operator_expressionILNS3_5TokenE276EEEEE@Base 2.0.0
 _ZTSN5boost6detail17sp_counted_impl_pIN4zeep3xml19operator_expressionILNS3_5TokenE277EEEEE@Base 2.0.0
 _ZTSN5boost6detail17sp_counted_impl_pIN4zeep3xml19operator_expressionILNS3_5TokenE278EEEEE@Base 2.0.0
 _ZTSN5boost6detail17sp_counted_impl_pIN4zeep3xml19operator_expressionILNS3_5TokenE279EEEEE@Base 2.0.0
 _ZTSN5boost6detail17sp_counted_impl_pIN4zeep3xml19operator_expressionILNS3_5TokenE280EEEEE@Base 2.0.0
 _ZTSN5boost6detail17sp_counted_impl_pIN4zeep3xml19variable_expressionEEE@Base 2.0.0
 _ZTSN5boost6detail17sp_counted_impl_pIN4zeep3xml20node_type_expressionINS3_22processing_instructionEEEEE@Base 2.0.0
 _ZTSN5boost6detail17sp_counted_impl_pIN4zeep3xml20node_type_expressionINS3_4nodeEEEEE@Base 2.0.0
 _ZTSN5boost6detail17sp_counted_impl_pIN4zeep3xml20node_type_expressionINS3_4textEEEEE@Base 2.0.0
 _ZTSN5boost6detail17sp_counted_impl_pIN4zeep3xml20node_type_expressionINS3_7commentEEEEE@Base 2.0.0
 _ZTSN5boost6detail17sp_counted_impl_pIN4zeep3xml20predicate_expressionEEE@Base 2.0.0
 _ZTSN5boost6detail17sp_counted_impl_pIN4zeep3xml24core_function_expressionILNS3_12CoreFunctionE0EEEEE@Base 2.0.0
 _ZTSN5boost6detail17sp_counted_impl_pIN4zeep3xml24core_function_expressionILNS3_12CoreFunctionE10EEEEE@Base 2.0.0
 _ZTSN5boost6detail17sp_counted_impl_pIN4zeep3xml24core_function_expressionILNS3_12CoreFunctionE11EEEEE@Base 2.0.0
 _ZTSN5boost6detail17sp_counted_impl_pIN4zeep3xml24core_function_expressionILNS3_12CoreFunctionE12EEEEE@Base 2.0.0
 _ZTSN5boost6detail17sp_counted_impl_pIN4zeep3xml24core_function_expressionILNS3_12CoreFunctionE14EEEEE@Base 2.0.0
 _ZTSN5boost6detail17sp_counted_impl_pIN4zeep3xml24core_function_expressionILNS3_12CoreFunctionE15EEEEE@Base 2.0.0
 _ZTSN5boost6detail17sp_counted_impl_pIN4zeep3xml24core_function_expressionILNS3_12CoreFunctionE16EEEEE@Base 2.0.0
 _ZTSN5boost6detail17sp_counted_impl_pIN4zeep3xml24core_function_expressionILNS3_12CoreFunctionE17EEEEE@Base 2.0.0
 _ZTSN5boost6detail17sp_counted_impl_pIN4zeep3xml24core_function_expressionILNS3_12CoreFunctionE18EEEEE@Base 2.0.0
 _ZTSN5boost6detail17sp_counted_impl_pIN4zeep3xml24core_function_expressionILNS3_12CoreFunctionE19EEEEE@Base 2.0.0
 _ZTSN5boost6detail17sp_counted_impl_pIN4zeep3xml24core_function_expressionILNS3_12CoreFunctionE1EEEEE@Base 2.0.0
 _ZTSN5boost6detail17sp_counted_impl_pIN4zeep3xml24core_function_expressionILNS3_12CoreFunctionE20EEEEE@Base 2.0.0
 _ZTSN5boost6detail17sp_counted_impl_pIN4zeep3xml24core_function_expressionILNS3_12CoreFunctionE21EEEEE@Base 2.0.0
 _ZTSN5boost6detail17sp_counted_impl_pIN4zeep3xml24core_function_expressionILNS3_12CoreFunctionE22EEEEE@Base 2.0.0
 _ZTSN5boost6detail17sp_counted_impl_pIN4zeep3xml24core_function_expressionILNS3_12CoreFunctionE23EEEEE@Base 2.0.0
 _ZTSN5boost6detail17sp_counted_impl_pIN4zeep3xml24core_function_expressionILNS3_12CoreFunctionE24EEEEE@Base 2.0.0
 _ZTSN5boost6detail17sp_counted_impl_pIN4zeep3xml24core_function_expressionILNS3_12CoreFunctionE25EEEEE@Base 2.0.0
 _ZTSN5boost6detail17sp_counted_impl_pIN4zeep3xml24core_function_expressionILNS3_12CoreFunctionE26EEEEE@Base 2.0.0
 _ZTSN5boost6detail17sp_counted_impl_pIN4zeep3xml24core_function_expressionILNS3_12CoreFunctionE27EEEEE@Base 2.0.0
 _ZTSN5boost6detail17sp_counted_impl_pIN4zeep3xml24core_function_expressionILNS3_12CoreFunctionE2EEEEE@Base 2.0.0
 _ZTSN5boost6detail17sp_counted_impl_pIN4zeep3xml24core_function_expressionILNS3_12CoreFunctionE3EEEEE@Base 2.0.0
 _ZTSN5boost6detail17sp_counted_impl_pIN4zeep3xml24core_function_expressionILNS3_12CoreFunctionE4EEEEE@Base 2.0.0
 _ZTSN5boost6detail17sp_counted_impl_pIN4zeep3xml24core_function_expressionILNS3_12CoreFunctionE5EEEEE@Base 2.0.0
 _ZTSN5boost6detail17sp_counted_impl_pIN4zeep3xml24core_function_expressionILNS3_12CoreFunctionE6EEEEE@Base 2.0.0
 _ZTSN5boost6detail17sp_counted_impl_pIN4zeep3xml24core_function_expressionILNS3_12CoreFunctionE7EEEEE@Base 2.0.0
 _ZTSN5boost6detail17sp_counted_impl_pIN4zeep3xml24core_function_expressionILNS3_12CoreFunctionE8EEEEE@Base 2.0.0
 _ZTSN5boost6detail17sp_counted_impl_pIN4zeep3xml24core_function_expressionILNS3_12CoreFunctionE9EEEEE@Base 2.0.0
 _ZTSN5boost6detail17sp_counted_impl_pIN4zeep3xml25name_test_step_expressionEEE@Base 2.0.0
 _ZTSN5boost6detail17sp_counted_impl_pIN4zeep4http10connectionEEE@Base 2.0.0
 _ZTSN5boost6detail17sp_counted_impl_pINS0_11thread_dataINS_3_bi6bind_tImNS_4_mfi3mf0ImNS_4asio10io_serviceEEENS3_5list1INS3_5valueIPS8_EEEEEEEEEE@Base 2.0.0
 _ZTSN5boost6detail17sp_counted_impl_pINS0_11thread_dataINS_3_bi6bind_tIvNS_4_mfi3mf0IvN4zeep4http6serverEEENS3_5list1INS3_5valueIPS9_EEEEEEEEEE@Base 2.0.0
 _ZTSN5boost6detail17sp_counted_impl_pINS_10filesystem22basic_filesystem_errorINS2_10basic_pathISsNS2_11path_traitsEEEE5m_impEEE@Base 2.0.0
 _ZTSN5boost6detail17sp_counted_impl_pINS_4asio21basic_socket_acceptorINS2_2ip3tcpENS2_23socket_acceptor_serviceIS5_EEEEEE@Base 2.0.0
 _ZTSN5boost6detail17sp_counted_impl_pISt6vectorINS_4asio2ip20basic_resolver_entryINS4_3tcpEEESaIS7_EEEE@Base 2.0.0
 _ZTSN5boost6detail18sp_counted_impl_pdIPNS_19thread_specific_ptrISt19basic_ostringstreamIcSt11char_traitsIcESaIcEEE11delete_dataENS0_14do_heap_deleteIS9_EEEE@Base 2.0.0
 _ZTSN5boost6detail18sp_counted_impl_pdIPNS_2io18basic_altstringbufIcSt11char_traitsIcESaIcEEENS2_22basic_oaltstringstreamIcS5_S6_E5No_OpEEE@Base 2.0.0
 _ZTSN5boost6detail18sp_counted_impl_pdIPvNS_4asio6detail16resolver_serviceINS3_2ip3tcpEE12noop_deleterEEE@Base 2.0.0
 _ZTSN5boost6detail20tss_cleanup_functionE@Base 2.0.0
 _ZTSN5boost6detail26lexical_stream_limited_srcIcSt15basic_streambufIcSt11char_traitsIcEES4_EE@Base 2.0.0
 _ZTSN5boost6system12system_errorE@Base 2.0.0
 _ZTSN5boost6system14error_categoryE@Base 2.0.0
 _ZTSN5boost9algorithm6detail13token_finderFINS1_10is_any_ofFIcEEEE@Base 2.0.0
 _ZTSN5boost9date_time10date_facetINS_9gregorian4dateEcSt19ostreambuf_iteratorIcSt11char_traitsIcEEEE@Base 2.0.0
 _ZTSN5boost9date_time10time_facetINS_10posix_time5ptimeEcSt19ostreambuf_iteratorIcSt11char_traitsIcEEEE@Base 2.0.0
 _ZTSN5boost9exceptionE@Base 2.0.0
 _ZTSN5boost9gregorian11bad_weekdayE@Base 2.0.0
 _ZTSN5boost9gregorian15bad_day_of_yearE@Base 2.0.0
 _ZTSN5boost9gregorian16bad_day_of_monthE@Base 2.0.0
 _ZTSN5boost9gregorian8bad_yearE@Base 2.0.0
 _ZTSN5boost9gregorian9bad_monthE@Base 2.0.0
 _ZTSPKN4zeep3xml4nodeE@Base 2.0.0
 _ZTSSs@Base 2.0.0
 _ZTSSt12out_of_range@Base 2.0.0
 _ZTTN5boost10filesystem14basic_ifstreamIcSt11char_traitsIcEEE@Base 2.0.0
 _ZTTN5boost2io22basic_oaltstringstreamIcSt11char_traitsIcESaIcEEE@Base 2.0.0
 _ZTVN4zeep3xml10expressionE@Base 2.0.0
 _ZTVN4zeep3xml10name_spaceE@Base 2.0.0
 _ZTVN4zeep3xml11context_impE@Base 2.0.0
 _ZTVN4zeep3xml11data_sourceE@Base 2.0.0
 _ZTVN4zeep3xml12document_impE@Base 2.0.0
 _ZTVN4zeep3xml15path_expressionE@Base 2.0.0
 _ZTVN4zeep3xml15root_expressionE@Base 2.0.0
 _ZTVN4zeep3xml15step_expressionE@Base 2.0.0
 _ZTVN4zeep3xml16not_wf_exceptionE@Base 2.0.0
 _ZTVN4zeep3xml16source_exceptionE@Base 2.0.0
 _ZTVN4zeep3xml16union_expressionE@Base 2.0.0
 _ZTVN4zeep3xml17invalid_exceptionE@Base 2.0.0
 _ZTVN4zeep3xml17negate_expressionE@Base 2.0.0
 _ZTVN4zeep3xml17number_expressionE@Base 2.0.0
 _ZTVN4zeep3xml17zeep_document_impE@Base 2.0.0
 _ZTVN4zeep3xml18entity_data_sourceE@Base 2.0.0
 _ZTVN4zeep3xml18expression_contextE@Base 2.0.0
 _ZTVN4zeep3xml18literal_expressionE@Base 2.0.0
 _ZTVN4zeep3xml18string_data_sourceE@Base 2.0.0
 _ZTVN4zeep3xml19istream_data_sourceE@Base 2.0.0
 _ZTVN4zeep3xml19operator_expressionILNS0_5TokenE269EEE@Base 2.0.0
 _ZTVN4zeep3xml19operator_expressionILNS0_5TokenE270EEE@Base 2.0.0
 _ZTVN4zeep3xml19operator_expressionILNS0_5TokenE271EEE@Base 2.0.0
 _ZTVN4zeep3xml19operator_expressionILNS0_5TokenE272EEE@Base 2.0.0
 _ZTVN4zeep3xml19operator_expressionILNS0_5TokenE273EEE@Base 2.0.0
 _ZTVN4zeep3xml19operator_expressionILNS0_5TokenE274EEE@Base 2.0.0
 _ZTVN4zeep3xml19operator_expressionILNS0_5TokenE275EEE@Base 2.0.0
 _ZTVN4zeep3xml19operator_expressionILNS0_5TokenE276EEE@Base 2.0.0
 _ZTVN4zeep3xml19operator_expressionILNS0_5TokenE277EEE@Base 2.0.0
 _ZTVN4zeep3xml19operator_expressionILNS0_5TokenE278EEE@Base 2.0.0
 _ZTVN4zeep3xml19operator_expressionILNS0_5TokenE279EEE@Base 2.0.0
 _ZTVN4zeep3xml19operator_expressionILNS0_5TokenE280EEE@Base 2.0.0
 _ZTVN4zeep3xml19variable_expressionE@Base 2.0.0
 _ZTVN4zeep3xml20node_type_expressionINS0_22processing_instructionEEE@Base 2.0.0
 _ZTVN4zeep3xml20node_type_expressionINS0_4nodeEEE@Base 2.0.0
 _ZTVN4zeep3xml20node_type_expressionINS0_4textEEE@Base 2.0.0
 _ZTVN4zeep3xml20node_type_expressionINS0_7commentEEE@Base 2.0.0
 _ZTVN4zeep3xml20predicate_expressionE@Base 2.0.0
 _ZTVN4zeep3xml22processing_instructionE@Base 2.0.0
 _ZTVN4zeep3xml24core_function_expressionILNS0_12CoreFunctionE0EEE@Base 2.0.0
 _ZTVN4zeep3xml24core_function_expressionILNS0_12CoreFunctionE10EEE@Base 2.0.0
 _ZTVN4zeep3xml24core_function_expressionILNS0_12CoreFunctionE11EEE@Base 2.0.0
 _ZTVN4zeep3xml24core_function_expressionILNS0_12CoreFunctionE12EEE@Base 2.0.0
 _ZTVN4zeep3xml24core_function_expressionILNS0_12CoreFunctionE14EEE@Base 2.0.0
 _ZTVN4zeep3xml24core_function_expressionILNS0_12CoreFunctionE15EEE@Base 2.0.0
 _ZTVN4zeep3xml24core_function_expressionILNS0_12CoreFunctionE16EEE@Base 2.0.0
 _ZTVN4zeep3xml24core_function_expressionILNS0_12CoreFunctionE17EEE@Base 2.0.0
 _ZTVN4zeep3xml24core_function_expressionILNS0_12CoreFunctionE18EEE@Base 2.0.0
 _ZTVN4zeep3xml24core_function_expressionILNS0_12CoreFunctionE19EEE@Base 2.0.0
 _ZTVN4zeep3xml24core_function_expressionILNS0_12CoreFunctionE1EEE@Base 2.0.0
 _ZTVN4zeep3xml24core_function_expressionILNS0_12CoreFunctionE20EEE@Base 2.0.0
 _ZTVN4zeep3xml24core_function_expressionILNS0_12CoreFunctionE21EEE@Base 2.0.0
 _ZTVN4zeep3xml24core_function_expressionILNS0_12CoreFunctionE22EEE@Base 2.0.0
 _ZTVN4zeep3xml24core_function_expressionILNS0_12CoreFunctionE23EEE@Base 2.0.0
 _ZTVN4zeep3xml24core_function_expressionILNS0_12CoreFunctionE24EEE@Base 2.0.0
 _ZTVN4zeep3xml24core_function_expressionILNS0_12CoreFunctionE25EEE@Base 2.0.0
 _ZTVN4zeep3xml24core_function_expressionILNS0_12CoreFunctionE26EEE@Base 2.0.0
 _ZTVN4zeep3xml24core_function_expressionILNS0_12CoreFunctionE27EEE@Base 2.0.0
 _ZTVN4zeep3xml24core_function_expressionILNS0_12CoreFunctionE2EEE@Base 2.0.0
 _ZTVN4zeep3xml24core_function_expressionILNS0_12CoreFunctionE3EEE@Base 2.0.0
 _ZTVN4zeep3xml24core_function_expressionILNS0_12CoreFunctionE4EEE@Base 2.0.0
 _ZTVN4zeep3xml24core_function_expressionILNS0_12CoreFunctionE5EEE@Base 2.0.0
 _ZTVN4zeep3xml24core_function_expressionILNS0_12CoreFunctionE6EEE@Base 2.0.0
 _ZTVN4zeep3xml24core_function_expressionILNS0_12CoreFunctionE7EEE@Base 2.0.0
 _ZTVN4zeep3xml24core_function_expressionILNS0_12CoreFunctionE8EEE@Base 2.0.0
 _ZTVN4zeep3xml24core_function_expressionILNS0_12CoreFunctionE9EEE@Base 2.0.0
 _ZTVN4zeep3xml25name_test_step_expressionE@Base 2.0.0
 _ZTVN4zeep3xml28parameter_entity_data_sourceE@Base 2.0.0
 _ZTVN4zeep3xml4nodeE@Base 2.0.0
 _ZTVN4zeep3xml4textE@Base 2.0.0
 _ZTVN4zeep3xml5xpathE@Base 2.0.0
 _ZTVN4zeep3xml6parserE@Base 2.0.0
 _ZTVN4zeep3xml6writerE@Base 2.0.0
 _ZTVN4zeep3xml7commentE@Base 2.0.0
 _ZTVN4zeep3xml7contextE@Base 2.0.0
 _ZTVN4zeep3xml7doctype10state_baseE@Base 2.0.0
 _ZTVN4zeep3xml7doctype11allowed_anyE@Base 2.0.0
 _ZTVN4zeep3xml7doctype11allowed_seqE@Base 2.0.0
 _ZTVN4zeep3xml7doctype11state_emptyE@Base 2.0.0
 _ZTVN4zeep3xml7doctype12allowed_baseE@Base 2.0.0
 _ZTVN4zeep3xml7doctype12state_choiceE@Base 2.0.0
 _ZTVN4zeep3xml7doctype13allowed_emptyE@Base 2.0.0
 _ZTVN4zeep3xml7doctype13state_elementE@Base 2.0.0
 _ZTVN4zeep3xml7doctype14allowed_choiceE@Base 2.0.0
 _ZTVN4zeep3xml7doctype14state_repeatedE@Base 2.0.0
 _ZTVN4zeep3xml7doctype15allowed_elementE@Base 2.0.0
 _ZTVN4zeep3xml7doctype16allowed_repeatedE@Base 2.0.0
 _ZTVN4zeep3xml7doctype18state_repeated_anyE@Base 2.0.0
 _ZTVN4zeep3xml7doctype27state_repeated_zero_or_onceE@Base 2.0.0
 _ZTVN4zeep3xml7doctype28state_repeated_at_least_onceE@Base 2.0.0
 _ZTVN4zeep3xml7doctype9state_anyE@Base 2.0.0
 _ZTVN4zeep3xml7doctype9state_seqE@Base 2.0.0
 _ZTVN4zeep3xml7elementE@Base 2.0.0
 _ZTVN4zeep3xml8documentE@Base 2.0.0
 _ZTVN4zeep3xml9attributeE@Base 2.0.0
 _ZTVN4zeep3xml9containerE@Base 2.0.0
 _ZTVN4zeep3xml9root_nodeE@Base 2.0.0
 _ZTVN4zeep4http15request_handlerE@Base 2.0.0
 _ZTVN4zeep4http21preforked_server_baseE@Base 2.0.0
 _ZTVN4zeep4http6serverE@Base 2.0.0
 _ZTVN4zeep6detail12handler_baseE@Base 2.0.0
 _ZTVN4zeep6serverE@Base 2.0.0
 _ZTVN4zeep9exceptionE@Base 2.0.0
 _ZTVN5boost10filesystem14basic_ifstreamIcSt11char_traitsIcEEE@Base 2.0.0
 _ZTVN5boost10filesystem22basic_filesystem_errorINS0_10basic_pathISsNS0_11path_traitsEEEEE@Base 2.0.0
 _ZTVN5boost10lock_errorE@Base 2.0.0
 _ZTVN5boost11bad_pointerE@Base 2.0.0
 _ZTVN5boost12bad_weak_ptrE@Base 2.0.0
 _ZTVN5boost16bad_lexical_castE@Base 2.0.0
 _ZTVN5boost16exception_detail10clone_baseE@Base 2.0.0
 _ZTVN5boost16exception_detail10clone_implINS0_19error_info_injectorINS_10filesystem22basic_filesystem_errorINS3_10basic_pathISsNS3_11path_traitsEEEEEEEEE@Base 2.0.0
 _ZTVN5boost16exception_detail10clone_implINS0_19error_info_injectorINS_12bad_weak_ptrEEEEE@Base 2.0.0
 _ZTVN5boost16exception_detail10clone_implINS0_19error_info_injectorINS_16bad_lexical_castEEEEE@Base 2.0.0
 _ZTVN5boost16exception_detail10clone_implINS0_19error_info_injectorINS_17bad_function_callEEEEE@Base 2.0.0
 _ZTVN5boost16exception_detail10clone_implINS0_19error_info_injectorINS_2io12too_few_argsEEEEE@Base 2.0.0
 _ZTVN5boost16exception_detail10clone_implINS0_19error_info_injectorINS_2io13too_many_argsEEEEE@Base 2.0.0
 _ZTVN5boost16exception_detail10clone_implINS0_19error_info_injectorINS_2io17bad_format_stringEEEEE@Base 2.0.0
 _ZTVN5boost16exception_detail10clone_implINS0_19error_info_injectorINS_6system12system_errorEEEEE@Base 2.0.0
 _ZTVN5boost16exception_detail10clone_implINS0_19error_info_injectorINS_9gregorian11bad_weekdayEEEEE@Base 2.0.0
 _ZTVN5boost16exception_detail10clone_implINS0_19error_info_injectorINS_9gregorian15bad_day_of_yearEEEEE@Base 2.0.0
 _ZTVN5boost16exception_detail10clone_implINS0_19error_info_injectorINS_9gregorian16bad_day_of_monthEEEEE@Base 2.0.0
 _ZTVN5boost16exception_detail10clone_implINS0_19error_info_injectorINS_9gregorian8bad_yearEEEEE@Base 2.0.0
 _ZTVN5boost16exception_detail10clone_implINS0_19error_info_injectorINS_9gregorian9bad_monthEEEEE@Base 2.0.0
 _ZTVN5boost16exception_detail10clone_implINS0_19error_info_injectorISt12out_of_rangeEEEE@Base 2.0.0
 _ZTVN5boost16exception_detail10clone_implINS0_19error_info_injectorISt13runtime_errorEEEE@Base 2.0.0
 _ZTVN5boost16exception_detail19error_info_injectorINS_10filesystem22basic_filesystem_errorINS2_10basic_pathISsNS2_11path_traitsEEEEEEE@Base 2.0.0
 _ZTVN5boost16exception_detail19error_info_injectorINS_12bad_weak_ptrEEE@Base 2.0.0
 _ZTVN5boost16exception_detail19error_info_injectorINS_16bad_lexical_castEEE@Base 2.0.0
 _ZTVN5boost16exception_detail19error_info_injectorINS_17bad_function_callEEE@Base 2.0.0
 _ZTVN5boost16exception_detail19error_info_injectorINS_2io12too_few_argsEEE@Base 2.0.0
 _ZTVN5boost16exception_detail19error_info_injectorINS_2io13too_many_argsEEE@Base 2.0.0
 _ZTVN5boost16exception_detail19error_info_injectorINS_2io17bad_format_stringEEE@Base 2.0.0
 _ZTVN5boost16exception_detail19error_info_injectorINS_6system12system_errorEEE@Base 2.0.0
 _ZTVN5boost16exception_detail19error_info_injectorINS_9gregorian11bad_weekdayEEE@Base 2.0.0
 _ZTVN5boost16exception_detail19error_info_injectorINS_9gregorian15bad_day_of_yearEEE@Base 2.0.0
 _ZTVN5boost16exception_detail19error_info_injectorINS_9gregorian16bad_day_of_monthEEE@Base 2.0.0
 _ZTVN5boost16exception_detail19error_info_injectorINS_9gregorian8bad_yearEEE@Base 2.0.0
 _ZTVN5boost16exception_detail19error_info_injectorINS_9gregorian9bad_monthEEE@Base 2.0.0
 _ZTVN5boost16exception_detail19error_info_injectorISt12out_of_rangeEE@Base 2.0.0
 _ZTVN5boost16exception_detail19error_info_injectorISt13runtime_errorEE@Base 2.0.0
 _ZTVN5boost16thread_exceptionE@Base 2.0.0
 _ZTVN5boost17bad_function_callE@Base 2.0.0
 _ZTVN5boost19thread_specific_ptrISt19basic_ostringstreamIcSt11char_traitsIcESaIcEEE11delete_dataE@Base 2.0.0
 _ZTVN5boost21thread_resource_errorE@Base 2.0.0
 _ZTVN5boost27bad_ptr_container_operationE@Base 2.0.0
 _ZTVN5boost2io12format_errorE@Base 2.0.0
 _ZTVN5boost2io12too_few_argsE@Base 2.0.0
 _ZTVN5boost2io13too_many_argsE@Base 2.0.0
 _ZTVN5boost2io17bad_format_stringE@Base 2.0.0
 _ZTVN5boost2io18basic_altstringbufIcSt11char_traitsIcESaIcEEE@Base 2.0.0
 _ZTVN5boost2io22basic_oaltstringstreamIcSt11char_traitsIcESaIcEEE@Base 2.0.0
 _ZTVN5boost4asio10io_service7serviceE@Base 2.0.0
 _ZTVN5boost4asio21stream_socket_serviceINS0_2ip3tcpEEE@Base 2.0.0
 _ZTVN5boost4asio23socket_acceptor_serviceINS0_2ip3tcpEEE@Base 2.0.0
 _ZTVN5boost4asio2ip16resolver_serviceINS1_3tcpEEE@Base 2.0.0
 _ZTVN5boost4asio5error6detail12ssl_categoryE@Base 2.0.0
 _ZTVN5boost4asio5error6detail13misc_categoryE@Base 2.0.0
 _ZTVN5boost4asio5error6detail14netdb_categoryE@Base 2.0.0
 _ZTVN5boost4asio5error6detail17addrinfo_categoryE@Base 2.0.0
 _ZTVN5boost4asio6detail12service_baseINS0_21stream_socket_serviceINS0_2ip3tcpEEEEE@Base 2.0.0
 _ZTVN5boost4asio6detail12service_baseINS0_23socket_acceptor_serviceINS0_2ip3tcpEEEEE@Base 2.0.0
 _ZTVN5boost4asio6detail12service_baseINS0_2ip16resolver_serviceINS3_3tcpEEEEE@Base 2.0.0
 _ZTVN5boost4asio6detail12service_baseINS1_13epoll_reactorILb0EEEEE@Base 2.0.0
 _ZTVN5boost4asio6detail12service_baseINS1_15task_io_serviceINS1_13epoll_reactorILb0EEEEEEE@Base 2.0.0
 _ZTVN5boost4asio6detail12service_baseINS1_16resolver_serviceINS0_2ip3tcpEEEEE@Base 2.0.0
 _ZTVN5boost4asio6detail12service_baseINS1_23reactive_socket_serviceINS0_2ip3tcpENS1_13epoll_reactorILb0EEEEEEE@Base 2.0.0
 _ZTVN5boost4asio6detail13epoll_reactorILb0EEE@Base 2.0.0
 _ZTVN5boost4asio6detail15task_io_serviceINS1_13epoll_reactorILb0EEEEE@Base 2.0.0
 _ZTVN5boost4asio6detail16resolver_serviceINS0_2ip3tcpEEE@Base 2.0.0
 _ZTVN5boost4asio6detail23reactive_socket_serviceINS0_2ip3tcpENS1_13epoll_reactorILb0EEEEE@Base 2.0.0
 _ZTVN5boost6detail11thread_dataINS_3_bi6bind_tImNS_4_mfi3mf0ImNS_4asio10io_serviceEEENS2_5list1INS2_5valueIPS7_EEEEEEEE@Base 2.0.0
 _ZTVN5boost6detail11thread_dataINS_3_bi6bind_tIvNS_4_mfi3mf0IvN4zeep4http6serverEEENS2_5list1INS2_5valueIPS8_EEEEEEEE@Base 2.0.0
 _ZTVN5boost6detail15sp_counted_baseE@Base 2.0.0
 _ZTVN5boost6detail17sp_counted_impl_pIN4zeep3xml15path_expressionEEE@Base 2.0.0
 _ZTVN5boost6detail17sp_counted_impl_pIN4zeep3xml15root_expressionEEE@Base 2.0.0
 _ZTVN5boost6detail17sp_counted_impl_pIN4zeep3xml16union_expressionEEE@Base 2.0.0
 _ZTVN5boost6detail17sp_counted_impl_pIN4zeep3xml17negate_expressionEEE@Base 2.0.0
 _ZTVN5boost6detail17sp_counted_impl_pIN4zeep3xml17number_expressionEEE@Base 2.0.0
 _ZTVN5boost6detail17sp_counted_impl_pIN4zeep3xml18literal_expressionEEE@Base 2.0.0
 _ZTVN5boost6detail17sp_counted_impl_pIN4zeep3xml19operator_expressionILNS3_5TokenE269EEEEE@Base 2.0.0
 _ZTVN5boost6detail17sp_counted_impl_pIN4zeep3xml19operator_expressionILNS3_5TokenE270EEEEE@Base 2.0.0
 _ZTVN5boost6detail17sp_counted_impl_pIN4zeep3xml19operator_expressionILNS3_5TokenE271EEEEE@Base 2.0.0
 _ZTVN5boost6detail17sp_counted_impl_pIN4zeep3xml19operator_expressionILNS3_5TokenE272EEEEE@Base 2.0.0
 _ZTVN5boost6detail17sp_counted_impl_pIN4zeep3xml19operator_expressionILNS3_5TokenE273EEEEE@Base 2.0.0
 _ZTVN5boost6detail17sp_counted_impl_pIN4zeep3xml19operator_expressionILNS3_5TokenE274EEEEE@Base 2.0.0
 _ZTVN5boost6detail17sp_counted_impl_pIN4zeep3xml19operator_expressionILNS3_5TokenE275EEEEE@Base 2.0.0
 _ZTVN5boost6detail17sp_counted_impl_pIN4zeep3xml19operator_expressionILNS3_5TokenE276EEEEE@Base 2.0.0
 _ZTVN5boost6detail17sp_counted_impl_pIN4zeep3xml19operator_expressionILNS3_5TokenE277EEEEE@Base 2.0.0
 _ZTVN5boost6detail17sp_counted_impl_pIN4zeep3xml19operator_expressionILNS3_5TokenE278EEEEE@Base 2.0.0
 _ZTVN5boost6detail17sp_counted_impl_pIN4zeep3xml19operator_expressionILNS3_5TokenE279EEEEE@Base 2.0.0
 _ZTVN5boost6detail17sp_counted_impl_pIN4zeep3xml19operator_expressionILNS3_5TokenE280EEEEE@Base 2.0.0
 _ZTVN5boost6detail17sp_counted_impl_pIN4zeep3xml19variable_expressionEEE@Base 2.0.0
 _ZTVN5boost6detail17sp_counted_impl_pIN4zeep3xml20node_type_expressionINS3_22processing_instructionEEEEE@Base 2.0.0
 _ZTVN5boost6detail17sp_counted_impl_pIN4zeep3xml20node_type_expressionINS3_4nodeEEEEE@Base 2.0.0
 _ZTVN5boost6detail17sp_counted_impl_pIN4zeep3xml20node_type_expressionINS3_4textEEEEE@Base 2.0.0
 _ZTVN5boost6detail17sp_counted_impl_pIN4zeep3xml20node_type_expressionINS3_7commentEEEEE@Base 2.0.0
 _ZTVN5boost6detail17sp_counted_impl_pIN4zeep3xml20predicate_expressionEEE@Base 2.0.0
 _ZTVN5boost6detail17sp_counted_impl_pIN4zeep3xml24core_function_expressionILNS3_12CoreFunctionE0EEEEE@Base 2.0.0
 _ZTVN5boost6detail17sp_counted_impl_pIN4zeep3xml24core_function_expressionILNS3_12CoreFunctionE10EEEEE@Base 2.0.0
 _ZTVN5boost6detail17sp_counted_impl_pIN4zeep3xml24core_function_expressionILNS3_12CoreFunctionE11EEEEE@Base 2.0.0
 _ZTVN5boost6detail17sp_counted_impl_pIN4zeep3xml24core_function_expressionILNS3_12CoreFunctionE12EEEEE@Base 2.0.0
 _ZTVN5boost6detail17sp_counted_impl_pIN4zeep3xml24core_function_expressionILNS3_12CoreFunctionE14EEEEE@Base 2.0.0
 _ZTVN5boost6detail17sp_counted_impl_pIN4zeep3xml24core_function_expressionILNS3_12CoreFunctionE15EEEEE@Base 2.0.0
 _ZTVN5boost6detail17sp_counted_impl_pIN4zeep3xml24core_function_expressionILNS3_12CoreFunctionE16EEEEE@Base 2.0.0
 _ZTVN5boost6detail17sp_counted_impl_pIN4zeep3xml24core_function_expressionILNS3_12CoreFunctionE17EEEEE@Base 2.0.0
 _ZTVN5boost6detail17sp_counted_impl_pIN4zeep3xml24core_function_expressionILNS3_12CoreFunctionE18EEEEE@Base 2.0.0
 _ZTVN5boost6detail17sp_counted_impl_pIN4zeep3xml24core_function_expressionILNS3_12CoreFunctionE19EEEEE@Base 2.0.0
 _ZTVN5boost6detail17sp_counted_impl_pIN4zeep3xml24core_function_expressionILNS3_12CoreFunctionE1EEEEE@Base 2.0.0
 _ZTVN5boost6detail17sp_counted_impl_pIN4zeep3xml24core_function_expressionILNS3_12CoreFunctionE20EEEEE@Base 2.0.0
 _ZTVN5boost6detail17sp_counted_impl_pIN4zeep3xml24core_function_expressionILNS3_12CoreFunctionE21EEEEE@Base 2.0.0
 _ZTVN5boost6detail17sp_counted_impl_pIN4zeep3xml24core_function_expressionILNS3_12CoreFunctionE22EEEEE@Base 2.0.0
 _ZTVN5boost6detail17sp_counted_impl_pIN4zeep3xml24core_function_expressionILNS3_12CoreFunctionE23EEEEE@Base 2.0.0
 _ZTVN5boost6detail17sp_counted_impl_pIN4zeep3xml24core_function_expressionILNS3_12CoreFunctionE24EEEEE@Base 2.0.0
 _ZTVN5boost6detail17sp_counted_impl_pIN4zeep3xml24core_function_expressionILNS3_12CoreFunctionE25EEEEE@Base 2.0.0
 _ZTVN5boost6detail17sp_counted_impl_pIN4zeep3xml24core_function_expressionILNS3_12CoreFunctionE26EEEEE@Base 2.0.0
 _ZTVN5boost6detail17sp_counted_impl_pIN4zeep3xml24core_function_expressionILNS3_12CoreFunctionE27EEEEE@Base 2.0.0
 _ZTVN5boost6detail17sp_counted_impl_pIN4zeep3xml24core_function_expressionILNS3_12CoreFunctionE2EEEEE@Base 2.0.0
 _ZTVN5boost6detail17sp_counted_impl_pIN4zeep3xml24core_function_expressionILNS3_12CoreFunctionE3EEEEE@Base 2.0.0
 _ZTVN5boost6detail17sp_counted_impl_pIN4zeep3xml24core_function_expressionILNS3_12CoreFunctionE4EEEEE@Base 2.0.0
 _ZTVN5boost6detail17sp_counted_impl_pIN4zeep3xml24core_function_expressionILNS3_12CoreFunctionE5EEEEE@Base 2.0.0
 _ZTVN5boost6detail17sp_counted_impl_pIN4zeep3xml24core_function_expressionILNS3_12CoreFunctionE6EEEEE@Base 2.0.0
 _ZTVN5boost6detail17sp_counted_impl_pIN4zeep3xml24core_function_expressionILNS3_12CoreFunctionE7EEEEE@Base 2.0.0
 _ZTVN5boost6detail17sp_counted_impl_pIN4zeep3xml24core_function_expressionILNS3_12CoreFunctionE8EEEEE@Base 2.0.0
 _ZTVN5boost6detail17sp_counted_impl_pIN4zeep3xml24core_function_expressionILNS3_12CoreFunctionE9EEEEE@Base 2.0.0
 _ZTVN5boost6detail17sp_counted_impl_pIN4zeep3xml25name_test_step_expressionEEE@Base 2.0.0
 _ZTVN5boost6detail17sp_counted_impl_pIN4zeep4http10connectionEEE@Base 2.0.0
 _ZTVN5boost6detail17sp_counted_impl_pINS0_11thread_dataINS_3_bi6bind_tImNS_4_mfi3mf0ImNS_4asio10io_serviceEEENS3_5list1INS3_5valueIPS8_EEEEEEEEEE@Base 2.0.0
 _ZTVN5boost6detail17sp_counted_impl_pINS0_11thread_dataINS_3_bi6bind_tIvNS_4_mfi3mf0IvN4zeep4http6serverEEENS3_5list1INS3_5valueIPS9_EEEEEEEEEE@Base 2.0.0
 _ZTVN5boost6detail17sp_counted_impl_pINS_10filesystem22basic_filesystem_errorINS2_10basic_pathISsNS2_11path_traitsEEEE5m_impEEE@Base 2.0.0
 _ZTVN5boost6detail17sp_counted_impl_pINS_4asio21basic_socket_acceptorINS2_2ip3tcpENS2_23socket_acceptor_serviceIS5_EEEEEE@Base 2.0.0
 _ZTVN5boost6detail17sp_counted_impl_pISt6vectorINS_4asio2ip20basic_resolver_entryINS4_3tcpEEESaIS7_EEEE@Base 2.0.0
 _ZTVN5boost6detail18sp_counted_impl_pdIPNS_19thread_specific_ptrISt19basic_ostringstreamIcSt11char_traitsIcESaIcEEE11delete_dataENS0_14do_heap_deleteIS9_EEEE@Base 2.0.0
 _ZTVN5boost6detail18sp_counted_impl_pdIPNS_2io18basic_altstringbufIcSt11char_traitsIcESaIcEEENS2_22basic_oaltstringstreamIcS5_S6_E5No_OpEEE@Base 2.0.0
 _ZTVN5boost6detail18sp_counted_impl_pdIPvNS_4asio6detail16resolver_serviceINS3_2ip3tcpEE12noop_deleterEEE@Base 2.0.0
 _ZTVN5boost6detail20tss_cleanup_functionE@Base 2.0.0
 _ZTVN5boost6detail26lexical_stream_limited_srcIcSt15basic_streambufIcSt11char_traitsIcEES4_EE@Base 2.0.0
 _ZTVN5boost6system12system_errorE@Base 2.0.0
 _ZTVN5boost6system14error_categoryE@Base 2.0.0
 _ZTVN5boost9date_time10date_facetINS_9gregorian4dateEcSt19ostreambuf_iteratorIcSt11char_traitsIcEEEE@Base 2.0.0
 _ZTVN5boost9date_time10time_facetINS_10posix_time5ptimeEcSt19ostreambuf_iteratorIcSt11char_traitsIcEEEE@Base 2.0.0
 _ZTVN5boost9exceptionE@Base 2.0.0
 _ZTVN5boost9gregorian11bad_weekdayE@Base 2.0.0
 _ZTVN5boost9gregorian15bad_day_of_yearE@Base 2.0.0
 _ZTVN5boost9gregorian16bad_day_of_monthE@Base 2.0.0
 _ZTVN5boost9gregorian8bad_yearE@Base 2.0.0
 _ZTVN5boost9gregorian9bad_monthE@Base 2.0.0
 _ZTVSt12out_of_range@Base 2.0.0
 _ZThn16_N5boost16exception_detail10clone_implINS0_19error_info_injectorINS_17bad_function_callEEEED0Ev@Base 2.0.0
 _ZThn16_N5boost16exception_detail10clone_implINS0_19error_info_injectorINS_17bad_function_callEEEED1Ev@Base 2.0.0
 _ZThn16_N5boost16exception_detail10clone_implINS0_19error_info_injectorINS_9gregorian11bad_weekdayEEEED0Ev@Base 2.0.0
 _ZThn16_N5boost16exception_detail10clone_implINS0_19error_info_injectorINS_9gregorian11bad_weekdayEEEED1Ev@Base 2.0.0
 _ZThn16_N5boost16exception_detail10clone_implINS0_19error_info_injectorINS_9gregorian15bad_day_of_yearEEEED0Ev@Base 2.0.0
 _ZThn16_N5boost16exception_detail10clone_implINS0_19error_info_injectorINS_9gregorian15bad_day_of_yearEEEED1Ev@Base 2.0.0
 _ZThn16_N5boost16exception_detail10clone_implINS0_19error_info_injectorINS_9gregorian16bad_day_of_monthEEEED0Ev@Base 2.0.0
 _ZThn16_N5boost16exception_detail10clone_implINS0_19error_info_injectorINS_9gregorian16bad_day_of_monthEEEED1Ev@Base 2.0.0
 _ZThn16_N5boost16exception_detail10clone_implINS0_19error_info_injectorINS_9gregorian8bad_yearEEEED0Ev@Base 2.0.0
 _ZThn16_N5boost16exception_detail10clone_implINS0_19error_info_injectorINS_9gregorian8bad_yearEEEED1Ev@Base 2.0.0
 _ZThn16_N5boost16exception_detail10clone_implINS0_19error_info_injectorINS_9gregorian9bad_monthEEEED0Ev@Base 2.0.0
 _ZThn16_N5boost16exception_detail10clone_implINS0_19error_info_injectorINS_9gregorian9bad_monthEEEED1Ev@Base 2.0.0
 _ZThn16_N5boost16exception_detail10clone_implINS0_19error_info_injectorISt12out_of_rangeEEED0Ev@Base 2.0.0
 _ZThn16_N5boost16exception_detail10clone_implINS0_19error_info_injectorISt12out_of_rangeEEED1Ev@Base 2.0.0
 _ZThn16_N5boost16exception_detail10clone_implINS0_19error_info_injectorISt13runtime_errorEEED0Ev@Base 2.0.0
 _ZThn16_N5boost16exception_detail10clone_implINS0_19error_info_injectorISt13runtime_errorEEED1Ev@Base 2.0.0
 _ZThn16_N5boost16exception_detail19error_info_injectorINS_17bad_function_callEED0Ev@Base 2.0.0
 _ZThn16_N5boost16exception_detail19error_info_injectorINS_17bad_function_callEED1Ev@Base 2.0.0
 _ZThn16_N5boost16exception_detail19error_info_injectorINS_9gregorian11bad_weekdayEED0Ev@Base 2.0.0
 _ZThn16_N5boost16exception_detail19error_info_injectorINS_9gregorian11bad_weekdayEED1Ev@Base 2.0.0
 _ZThn16_N5boost16exception_detail19error_info_injectorINS_9gregorian15bad_day_of_yearEED0Ev@Base 2.0.0
 _ZThn16_N5boost16exception_detail19error_info_injectorINS_9gregorian15bad_day_of_yearEED1Ev@Base 2.0.0
 _ZThn16_N5boost16exception_detail19error_info_injectorINS_9gregorian16bad_day_of_monthEED0Ev@Base 2.0.0
 _ZThn16_N5boost16exception_detail19error_info_injectorINS_9gregorian16bad_day_of_monthEED1Ev@Base 2.0.0
 _ZThn16_N5boost16exception_detail19error_info_injectorINS_9gregorian8bad_yearEED0Ev@Base 2.0.0
 _ZThn16_N5boost16exception_detail19error_info_injectorINS_9gregorian8bad_yearEED1Ev@Base 2.0.0
 _ZThn16_N5boost16exception_detail19error_info_injectorINS_9gregorian9bad_monthEED0Ev@Base 2.0.0
 _ZThn16_N5boost16exception_detail19error_info_injectorINS_9gregorian9bad_monthEED1Ev@Base 2.0.0
 _ZThn16_N5boost16exception_detail19error_info_injectorISt12out_of_rangeED0Ev@Base 2.0.0
 _ZThn16_N5boost16exception_detail19error_info_injectorISt12out_of_rangeED1Ev@Base 2.0.0
 _ZThn16_N5boost16exception_detail19error_info_injectorISt13runtime_errorED0Ev@Base 2.0.0
 _ZThn16_N5boost16exception_detail19error_info_injectorISt13runtime_errorED1Ev@Base 2.0.0
 _ZThn24_N5boost16exception_detail10clone_implINS0_19error_info_injectorINS_16bad_lexical_castEEEED0Ev@Base 2.0.0
 _ZThn24_N5boost16exception_detail10clone_implINS0_19error_info_injectorINS_16bad_lexical_castEEEED1Ev@Base 2.0.0
 _ZThn24_N5boost16exception_detail10clone_implINS0_19error_info_injectorINS_2io12too_few_argsEEEED0Ev@Base 2.0.0
 _ZThn24_N5boost16exception_detail10clone_implINS0_19error_info_injectorINS_2io12too_few_argsEEEED1Ev@Base 2.0.0
 _ZThn24_N5boost16exception_detail10clone_implINS0_19error_info_injectorINS_2io13too_many_argsEEEED0Ev@Base 2.0.0
 _ZThn24_N5boost16exception_detail10clone_implINS0_19error_info_injectorINS_2io13too_many_argsEEEED1Ev@Base 2.0.0
 _ZThn24_N5boost16exception_detail10clone_implINS0_19error_info_injectorINS_2io17bad_format_stringEEEED0Ev@Base 2.0.0
 _ZThn24_N5boost16exception_detail10clone_implINS0_19error_info_injectorINS_2io17bad_format_stringEEEED1Ev@Base 2.0.0
 _ZThn24_N5boost16exception_detail19error_info_injectorINS_16bad_lexical_castEED0Ev@Base 2.0.0
 _ZThn24_N5boost16exception_detail19error_info_injectorINS_16bad_lexical_castEED1Ev@Base 2.0.0
 _ZThn24_N5boost16exception_detail19error_info_injectorINS_2io12too_few_argsEED0Ev@Base 2.0.0
 _ZThn24_N5boost16exception_detail19error_info_injectorINS_2io12too_few_argsEED1Ev@Base 2.0.0
 _ZThn24_N5boost16exception_detail19error_info_injectorINS_2io13too_many_argsEED0Ev@Base 2.0.0
 _ZThn24_N5boost16exception_detail19error_info_injectorINS_2io13too_many_argsEED1Ev@Base 2.0.0
 _ZThn24_N5boost16exception_detail19error_info_injectorINS_2io17bad_format_stringEED0Ev@Base 2.0.0
 _ZThn24_N5boost16exception_detail19error_info_injectorINS_2io17bad_format_stringEED1Ev@Base 2.0.0
 _ZThn40_N5boost16exception_detail10clone_implINS0_19error_info_injectorINS_6system12system_errorEEEED0Ev@Base 2.0.0
 _ZThn40_N5boost16exception_detail10clone_implINS0_19error_info_injectorINS_6system12system_errorEEEED1Ev@Base 2.0.0
 _ZThn40_N5boost16exception_detail19error_info_injectorINS_6system12system_errorEED0Ev@Base 2.0.0
 _ZThn40_N5boost16exception_detail19error_info_injectorINS_6system12system_errorEED1Ev@Base 2.0.0
 _ZThn48_N5boost16exception_detail10clone_implINS0_19error_info_injectorINS_12bad_weak_ptrEEEED0Ev@Base 2.0.0
 _ZThn48_N5boost16exception_detail10clone_implINS0_19error_info_injectorINS_12bad_weak_ptrEEEED1Ev@Base 2.0.0
 _ZThn48_NK5boost16exception_detail10clone_implINS0_19error_info_injectorINS_12bad_weak_ptrEEEE5cloneEv@Base 2.0.0
 _ZThn48_NK5boost16exception_detail10clone_implINS0_19error_info_injectorINS_12bad_weak_ptrEEEE7rethrowEv@Base 2.0.0
 _ZThn56_N5boost16exception_detail10clone_implINS0_19error_info_injectorINS_10filesystem22basic_filesystem_errorINS3_10basic_pathISsNS3_11path_traitsEEEEEEEED0Ev@Base 2.0.0
 _ZThn56_N5boost16exception_detail10clone_implINS0_19error_info_injectorINS_10filesystem22basic_filesystem_errorINS3_10basic_pathISsNS3_11path_traitsEEEEEEEED1Ev@Base 2.0.0
 _ZThn56_N5boost16exception_detail10clone_implINS0_19error_info_injectorINS_17bad_function_callEEEED0Ev@Base 2.0.0
 _ZThn56_N5boost16exception_detail10clone_implINS0_19error_info_injectorINS_17bad_function_callEEEED1Ev@Base 2.0.0
 _ZThn56_N5boost16exception_detail10clone_implINS0_19error_info_injectorINS_9gregorian11bad_weekdayEEEED0Ev@Base 2.0.0
 _ZThn56_N5boost16exception_detail10clone_implINS0_19error_info_injectorINS_9gregorian11bad_weekdayEEEED1Ev@Base 2.0.0
 _ZThn56_N5boost16exception_detail10clone_implINS0_19error_info_injectorINS_9gregorian15bad_day_of_yearEEEED0Ev@Base 2.0.0
 _ZThn56_N5boost16exception_detail10clone_implINS0_19error_info_injectorINS_9gregorian15bad_day_of_yearEEEED1Ev@Base 2.0.0
 _ZThn56_N5boost16exception_detail10clone_implINS0_19error_info_injectorINS_9gregorian16bad_day_of_monthEEEED0Ev@Base 2.0.0
 _ZThn56_N5boost16exception_detail10clone_implINS0_19error_info_injectorINS_9gregorian16bad_day_of_monthEEEED1Ev@Base 2.0.0
 _ZThn56_N5boost16exception_detail10clone_implINS0_19error_info_injectorINS_9gregorian8bad_yearEEEED0Ev@Base 2.0.0
 _ZThn56_N5boost16exception_detail10clone_implINS0_19error_info_injectorINS_9gregorian8bad_yearEEEED1Ev@Base 2.0.0
 _ZThn56_N5boost16exception_detail10clone_implINS0_19error_info_injectorINS_9gregorian9bad_monthEEEED0Ev@Base 2.0.0
 _ZThn56_N5boost16exception_detail10clone_implINS0_19error_info_injectorINS_9gregorian9bad_monthEEEED1Ev@Base 2.0.0
 _ZThn56_N5boost16exception_detail10clone_implINS0_19error_info_injectorISt12out_of_rangeEEED0Ev@Base 2.0.0
 _ZThn56_N5boost16exception_detail10clone_implINS0_19error_info_injectorISt12out_of_rangeEEED1Ev@Base 2.0.0
 _ZThn56_N5boost16exception_detail10clone_implINS0_19error_info_injectorISt13runtime_errorEEED0Ev@Base 2.0.0
 _ZThn56_N5boost16exception_detail10clone_implINS0_19error_info_injectorISt13runtime_errorEEED1Ev@Base 2.0.0
 _ZThn56_N5boost16exception_detail19error_info_injectorINS_10filesystem22basic_filesystem_errorINS2_10basic_pathISsNS2_11path_traitsEEEEEED0Ev@Base 2.0.0
 _ZThn56_N5boost16exception_detail19error_info_injectorINS_10filesystem22basic_filesystem_errorINS2_10basic_pathISsNS2_11path_traitsEEEEEED1Ev@Base 2.0.0
 _ZThn56_NK5boost16exception_detail10clone_implINS0_19error_info_injectorINS_17bad_function_callEEEE5cloneEv@Base 2.0.0
 _ZThn56_NK5boost16exception_detail10clone_implINS0_19error_info_injectorINS_17bad_function_callEEEE7rethrowEv@Base 2.0.0
 _ZThn56_NK5boost16exception_detail10clone_implINS0_19error_info_injectorINS_9gregorian11bad_weekdayEEEE5cloneEv@Base 2.0.0
 _ZThn56_NK5boost16exception_detail10clone_implINS0_19error_info_injectorINS_9gregorian11bad_weekdayEEEE7rethrowEv@Base 2.0.0
 _ZThn56_NK5boost16exception_detail10clone_implINS0_19error_info_injectorINS_9gregorian15bad_day_of_yearEEEE5cloneEv@Base 2.0.0
 _ZThn56_NK5boost16exception_detail10clone_implINS0_19error_info_injectorINS_9gregorian15bad_day_of_yearEEEE7rethrowEv@Base 2.0.0
 _ZThn56_NK5boost16exception_detail10clone_implINS0_19error_info_injectorINS_9gregorian16bad_day_of_monthEEEE5cloneEv@Base 2.0.0
 _ZThn56_NK5boost16exception_detail10clone_implINS0_19error_info_injectorINS_9gregorian16bad_day_of_monthEEEE7rethrowEv@Base 2.0.0
 _ZThn56_NK5boost16exception_detail10clone_implINS0_19error_info_injectorINS_9gregorian8bad_yearEEEE5cloneEv@Base 2.0.0
 _ZThn56_NK5boost16exception_detail10clone_implINS0_19error_info_injectorINS_9gregorian8bad_yearEEEE7rethrowEv@Base 2.0.0
 _ZThn56_NK5boost16exception_detail10clone_implINS0_19error_info_injectorINS_9gregorian9bad_monthEEEE5cloneEv@Base 2.0.0
 _ZThn56_NK5boost16exception_detail10clone_implINS0_19error_info_injectorINS_9gregorian9bad_monthEEEE7rethrowEv@Base 2.0.0
 _ZThn56_NK5boost16exception_detail10clone_implINS0_19error_info_injectorISt12out_of_rangeEEE5cloneEv@Base 2.0.0
 _ZThn56_NK5boost16exception_detail10clone_implINS0_19error_info_injectorISt12out_of_rangeEEE7rethrowEv@Base 2.0.0
 _ZThn56_NK5boost16exception_detail10clone_implINS0_19error_info_injectorISt13runtime_errorEEE5cloneEv@Base 2.0.0
 _ZThn56_NK5boost16exception_detail10clone_implINS0_19error_info_injectorISt13runtime_errorEEE7rethrowEv@Base 2.0.0
 _ZThn64_N5boost16exception_detail10clone_implINS0_19error_info_injectorINS_16bad_lexical_castEEEED0Ev@Base 2.0.0
 _ZThn64_N5boost16exception_detail10clone_implINS0_19error_info_injectorINS_16bad_lexical_castEEEED1Ev@Base 2.0.0
 _ZThn64_N5boost16exception_detail10clone_implINS0_19error_info_injectorINS_2io12too_few_argsEEEED0Ev@Base 2.0.0
 _ZThn64_N5boost16exception_detail10clone_implINS0_19error_info_injectorINS_2io12too_few_argsEEEED1Ev@Base 2.0.0
 _ZThn64_N5boost16exception_detail10clone_implINS0_19error_info_injectorINS_2io13too_many_argsEEEED0Ev@Base 2.0.0
 _ZThn64_N5boost16exception_detail10clone_implINS0_19error_info_injectorINS_2io13too_many_argsEEEED1Ev@Base 2.0.0
 _ZThn64_N5boost16exception_detail10clone_implINS0_19error_info_injectorINS_2io17bad_format_stringEEEED0Ev@Base 2.0.0
 _ZThn64_N5boost16exception_detail10clone_implINS0_19error_info_injectorINS_2io17bad_format_stringEEEED1Ev@Base 2.0.0
 _ZThn64_NK5boost16exception_detail10clone_implINS0_19error_info_injectorINS_16bad_lexical_castEEEE5cloneEv@Base 2.0.0
 _ZThn64_NK5boost16exception_detail10clone_implINS0_19error_info_injectorINS_16bad_lexical_castEEEE7rethrowEv@Base 2.0.0
 _ZThn64_NK5boost16exception_detail10clone_implINS0_19error_info_injectorINS_2io12too_few_argsEEEE5cloneEv@Base 2.0.0
 _ZThn64_NK5boost16exception_detail10clone_implINS0_19error_info_injectorINS_2io12too_few_argsEEEE7rethrowEv@Base 2.0.0
 _ZThn64_NK5boost16exception_detail10clone_implINS0_19error_info_injectorINS_2io13too_many_argsEEEE5cloneEv@Base 2.0.0
 _ZThn64_NK5boost16exception_detail10clone_implINS0_19error_info_injectorINS_2io13too_many_argsEEEE7rethrowEv@Base 2.0.0
 _ZThn64_NK5boost16exception_detail10clone_implINS0_19error_info_injectorINS_2io17bad_format_stringEEEE5cloneEv@Base 2.0.0
 _ZThn64_NK5boost16exception_detail10clone_implINS0_19error_info_injectorINS_2io17bad_format_stringEEEE7rethrowEv@Base 2.0.0
 _ZThn80_N5boost16exception_detail10clone_implINS0_19error_info_injectorINS_6system12system_errorEEEED0Ev@Base 2.0.0
 _ZThn80_N5boost16exception_detail10clone_implINS0_19error_info_injectorINS_6system12system_errorEEEED1Ev@Base 2.0.0
 _ZThn80_NK5boost16exception_detail10clone_implINS0_19error_info_injectorINS_6system12system_errorEEEE5cloneEv@Base 2.0.0
 _ZThn80_NK5boost16exception_detail10clone_implINS0_19error_info_injectorINS_6system12system_errorEEEE7rethrowEv@Base 2.0.0
 _ZThn8_N5boost16exception_detail10clone_implINS0_19error_info_injectorINS_12bad_weak_ptrEEEED0Ev@Base 2.0.0
 _ZThn8_N5boost16exception_detail10clone_implINS0_19error_info_injectorINS_12bad_weak_ptrEEEED1Ev@Base 2.0.0
 _ZThn8_N5boost16exception_detail19error_info_injectorINS_12bad_weak_ptrEED0Ev@Base 2.0.0
 _ZThn8_N5boost16exception_detail19error_info_injectorINS_12bad_weak_ptrEED1Ev@Base 2.0.0
 _ZThn96_N5boost16exception_detail10clone_implINS0_19error_info_injectorINS_10filesystem22basic_filesystem_errorINS3_10basic_pathISsNS3_11path_traitsEEEEEEEED0Ev@Base 2.0.0
 _ZThn96_N5boost16exception_detail10clone_implINS0_19error_info_injectorINS_10filesystem22basic_filesystem_errorINS3_10basic_pathISsNS3_11path_traitsEEEEEEEED1Ev@Base 2.0.0
 _ZThn96_NK5boost16exception_detail10clone_implINS0_19error_info_injectorINS_10filesystem22basic_filesystem_errorINS3_10basic_pathISsNS3_11path_traitsEEEEEEEE5cloneEv@Base 2.0.0
 _ZThn96_NK5boost16exception_detail10clone_implINS0_19error_info_injectorINS_10filesystem22basic_filesystem_errorINS3_10basic_pathISsNS3_11path_traitsEEEEEEEE7rethrowEv@Base 2.0.0
 _ZTv0_n24_N5boost10filesystem14basic_ifstreamIcSt11char_traitsIcEED0Ev@Base 2.0.0
 _ZTv0_n24_N5boost10filesystem14basic_ifstreamIcSt11char_traitsIcEED1Ev@Base 2.0.0
 _ZTv0_n24_N5boost2io22basic_oaltstringstreamIcSt11char_traitsIcESaIcEED0Ev@Base 2.0.0
 _ZTv0_n24_N5boost2io22basic_oaltstringstreamIcSt11char_traitsIcESaIcEED1Ev@Base 2.0.0
 _ZZN4zeep3xml11data_sourceC1EPS1_E7sNextID@Base 2.0.0
 _ZZN5boost4asio5error16get_ssl_categoryEvE8instance@Base 2.0.0
 _ZZN5boost4asio5error17get_misc_categoryEvE8instance@Base 2.0.0
 _ZZN5boost4asio5error18get_netdb_categoryEvE8instance@Base 2.0.0
 _ZZN5boost4asio5error21get_addrinfo_categoryEvE8instance@Base 2.0.0
 _ZZN5boost4asio6detail8hash_mapIiPNS1_16reactor_op_queueIiE7op_baseEE9hash_sizeEmE5sizes@Base 2.0.0
 _ZZN5boost9function1IbPKN4zeep3xml4nodeEE9assign_toINS_3_bi6bind_tIbNS_4_mfi3mf1IbNS2_25name_test_step_expressionES5_EENS8_5list2INS8_5valueIPSC_EENS_3argILi1EEEEEEEEEvT_E13stored_vtable@Base 2.0.0
 _ZZN5boost9function1IbPKN4zeep3xml4nodeEE9assign_toINS_3_bi6bind_tIbPFbS5_ENS8_5list1INS_3argILi1EEEEEEEEEvT_E13stored_vtable@Base 2.0.0
 _ZZN5boost9function1IvRKSsE9assign_toINS_3_bi6bind_tIvNS_4_mfi3mf1IvN4zeep3xml17zeep_document_impES2_EENS5_5list2INS5_5valueIPSB_EENS_3argILi1EEEEEEEEEvT_E13stored_vtable@Base 2.0.0
 _ZZN5boost9function2INS_14iterator_rangeIN9__gnu_cxx17__normal_iteratorIPcSsEEEES5_S5_E9assign_toINS_9algorithm6detail13token_finderFINSA_10is_any_ofFIcEEEEEEvT_E13stored_vtable@Base 2.0.0
 _ZZN5boost9function2IvRKSsS2_E9assign_toINS_3_bi6bind_tIvNS_4_mfi3mf2IvN4zeep3xml17zeep_document_impES2_S2_EENS5_5list3INS5_5valueIPSB_EENS_3argILi1EEENSH_ILi2EEEEEEEEEvT_E13stored_vtable@Base 2.0.0
 _ZZN5boost9function3IPSiRKSsS3_S3_E9assign_toINS_3_bi6bind_tIS1_NS_4_mfi3mf3IS1_N4zeep3xml12document_impES3_S3_S3_EENS6_5list4INS6_5valueIPNSB_17zeep_document_impEEENS_3argILi1EEENSJ_ILi2EEENSJ_ILi3EEEEEEEEEvT_E13stored_vtable@Base 2.0.0
 _ZZN5boost9function3IvRKSsS2_RKSt4listIN4zeep3xml6detail4attrESaIS7_EEE9assign_toINS_3_bi6bind_tIvNS_4_mfi3mf3IvNS5_17zeep_document_impES2_S2_SB_EENSE_5list4INSE_5valueIPSI_EENS_3argILi1EEENSO_ILi2EEENSO_ILi3EEEEEEEEEvT_E13stored_vtable@Base 2.0.0
 _ZZN5boost9function3IvRKSsS2_S2_E9assign_toINS_3_bi6bind_tIvNS_4_mfi3mf3IvN4zeep3xml17zeep_document_impES2_S2_S2_EENS5_5list4INS5_5valueIPSB_EENS_3argILi1EEENSH_ILi2EEENSH_ILi3EEEEEEEEEvT_E13stored_vtable@Base 2.0.0
